(lp0
(S'how you have felt o men of athens at hearing the speeches of my accusers i cannot tell'
p1
S'How you have felt, O men of Athens, at hearing the speeches of my accusers, I cannot tell;'
p2
tp3
a(S'but i know that their persuasive words almost made me forget who i was  such was the effect of them'
p4
S'but I know that their persuasive words almost made me forget who I was - such was the effect of them;'
p5
tp6
a(S'and yet they have hardly spoken a word of truth'
p7
S'and yet they have hardly spoken a word of truth.'
p8
tp9
a(S'but many as their falsehoods were there was one of them which quite amazed me'
p10
S'But many as their falsehoods were, there was one of them which quite amazed me;'
p11
tp12
a(S' i mean when they told you to be upon your guard and not to let yourselves be deceived by the force of my eloquence'
p13
S'- I mean when they told you to be upon your guard, and not to let yourselves be deceived by the force of my eloquence.'
p14
tp15
a(S'they ought to have been ashamed of saying this because they were sure to be detected as soon as i opened my lips and displayed my deficiency'
p16
S'They ought to have been ashamed of saying this, because they were sure to be detected as soon as I opened my lips and displayed my deficiency;'
p17
tp18
a(S'they certainly did appear to be most shameless in saying this unless by the force of eloquence they mean the force of truth'
p19
S'they certainly did appear to be most shameless in saying this, unless by the force of eloquence they mean the force of truth;'
p20
tp21
a(S'for then i do indeed admit that i am eloquent'
p22
S'for then I do indeed admit that I am eloquent.'
p23
tp24
a(S'but in how different a way from theirs'
p25
S'But in how different a way from theirs!'
p26
tp27
a(S'well as i was saying they have hardly uttered a word or not more than a word of truth'
p28
S'Well, as I was saying, they have hardly uttered a word, or not more than a word, of truth;'
p29
tp30
a(S'but you shall hear from me the whole truth not however delivered after their manner in a set oration duly ornamented with words and phrases'
p31
S'but you shall hear from me the whole truth: not, however, delivered after their manner, in a set oration duly ornamented with words and phrases.'
p32
tp33
a(S'no indeed'
p34
S'No indeed!'
p35
tp36
a(S'but i shall use the words and arguments which occur to me at the moment'
p37
S'but I shall use the words and arguments which occur to me at the moment;'
p38
tp39
a(S'for i am certain that this is right and that at my time of life i ought not to be appearing before you o men of athens in the character of a juvenile orator  let no one expect this of me'
p40
S'for I am certain that this is right, and that at my time of life I ought not to be appearing before you, O men of Athens, in the character of a juvenile orator - let no one expect this of me.'
p41
tp42
a(S'and i must beg of you to grant me one favor which is this  if you hear me using the same words in my defence which i have been in the habit of using and which most of you may have heard in the agora and at the tables of the moneychangers or anywhere else i would ask you not to be surprised at this and not to interrupt me'
p43
S'And I must beg of you to grant me one favor, which is this - If you hear me using the same words in my defence which I have been in the habit of using, and which most of you may have heard in the agora, and at the tables of the money-changers, or anywhere else, I would ask you not to be surprised at this, and not to interrupt me.'
p44
tp45
a(S'for i am more than seventy years of age and this is the first time that i have ever appeared in a court of law and i am quite a stranger to the ways of the place'
p46
S'For I am more than seventy years of age, and this is the first time that I have ever appeared in a court of law, and I am quite a stranger to the ways of the place;'
p47
tp48
a(S'and therefore i would have you regard me as if i were really a stranger whom you would excuse if he spoke in his native tongue and after the fashion of his country'
p49
S'and therefore I would have you regard me as if I were really a stranger, whom you would excuse if he spoke in his native tongue, and after the fashion of his country;'
p50
tp51
a(S' that i think is not an unfair request'
p52
S'- that I think is not an unfair request.'
p53
tp54
a(S'never mind the manner which may or may not be good'
p55
S'Never mind the manner, which may or may not be good;'
p56
tp57
a(S'but think only of the justice of my cause and give heed to that let the judge decide justly and the speaker speak truly'
p58
S'but think only of the justice of my cause, and give heed to that: let the judge decide justly and the speaker speak truly.'
p59
tp60
a(S'and first i have to reply to the older charges and to my first accusers and then i will go to the later ones'
p61
S'And first, I have to reply to the older charges and to my first accusers, and then I will go to the later ones.'
p62
tp63
a(S'for i have had many accusers who accused me of old and their false charges have continued during many years'
p64
S'For I have had many accusers, who accused me of old, and their false charges have continued during many years;'
p65
tp66
a(S'and i am more afraid of them than of anytus and his associates who are dangerous too in their own way'
p67
S'and I am more afraid of them than of Anytus and his associates, who are dangerous, too, in their own way.'
p68
tp69
a(S'but far more dangerous are these who began when you were children and took possession of your minds with their falsehoods telling of one socrates a wise man who speculated about the heaven above and searched into the earth beneath and made the worse appear the better cause'
p70
S'But far more dangerous are these, who began when you were children, and took possession of your minds with their falsehoods, telling of one Socrates, a wise man, who speculated about the heaven above, and searched into the earth beneath, and made the worse appear the better cause.'
p71
tp72
a(S'these are the accusers whom i dread'
p73
S'These are the accusers whom I dread;'
p74
tp75
a(S'for they are the circulators of this rumor and their hearers are too apt to fancy that speculators of this sort do not believe in the gods'
p76
S'for they are the circulators of this rumor, and their hearers are too apt to fancy that speculators of this sort do not believe in the gods.'
p77
tp78
a(S'and they are many and their charges against me are of ancient date and they made them in days when you were impressible  in childhood or perhaps in youth  and the cause when heard went by default for there was none to answer'
p79
S'And they are many, and their charges against me are of ancient date, and they made them in days when you were impressible - in childhood, or perhaps in youth - and the cause when heard went by default, for there was none to answer.'
p80
tp81
a(S'and hardest of all their names i do not know and cannot tell'
p82
S'And, hardest of all, their names I do not know and cannot tell;'
p83
tp84
a(S'unless in the chance of a comic poet'
p85
S'unless in the chance of a comic poet.'
p86
tp87
a(S'but the main body of these slanderers who from envy and malice have wrought upon you  and there are some of them who are convinced themselves and impart their convictions to others  all these i say are most difficult to deal with'
p88
S'But the main body of these slanderers who from envy and malice have wrought upon you - and there are some of them who are convinced themselves, and impart their convictions to others - all these, I say, are most difficult to deal with;'
p89
tp90
a(S'for i cannot have them up here and examine them and therefore i must simply fight with shadows in my own defence and examine when there is no one who answers'
p91
S'for I cannot have them up here, and examine them, and therefore I must simply fight with shadows in my own defence, and examine when there is no one who answers.'
p92
tp93
a(S'i will ask you then to assume with me as i was saying that my opponents are of two kinds  one recent the other ancient'
p94
S'I will ask you then to assume with me, as I was saying, that my opponents are of two kinds - one recent, the other ancient;'
p95
tp96
a(S'and i hope that you will see the propriety of my answering the latter first for these accusations you heard long before the others and much oftener'
p97
S'and I hope that you will see the propriety of my answering the latter first, for these accusations you heard long before the others, and much oftener.'
p98
tp99
a(S'well then i will make my defence and i will endeavor in the short time which is allowed to do away with this evil opinion of me which you have held for such a long time'
p100
S'Well, then, I will make my defence, and I will endeavor in the short time which is allowed to do away with this evil opinion of me which you have held for such a long time;'
p101
tp102
a(S'and i hope i may succeed if this be well for you and me and that my words may find favor with you'
p103
S'and I hope I may succeed, if this be well for you and me, and that my words may find favor with you.'
p104
tp105
a(S'but i know that to accomplish this is not easy  i quite see the nature of the task'
p106
S'But I know that to accomplish this is not easy - I quite see the nature of the task.'
p107
tp108
a(S'let the event be as god wills in obedience to the law i make my defence'
p109
S'Let the event be as God wills: in obedience to the law I make my defence.'
p110
tp111
a(S'i will begin at the beginning and ask what the accusation is which has given rise to this slander of me and which has encouraged meletus to proceed against me'
p112
S'I will begin at the beginning, and ask what the accusation is which has given rise to this slander of me, and which has encouraged Meletus to proceed against me.'
p113
tp114
a(S'what do the slanderers say'
p115
S'What do the slanderers say?'
p116
tp117
a(S'they shall be my prosecutors and i will sum up their words in an affidavit'
p118
S'They shall be my prosecutors, and I will sum up their words in an affidavit.'
p119
tp120
a(S'socrates is an evildoer and a curious person who searches into things under the earth and in heaven and he makes the worse appear the better cause'
p121
S'"Socrates is an evil-doer, and a curious person, who searches into things under the earth and in heaven, and he makes the worse appear the better cause;'
p122
tp123
a(S'and he teaches the aforesaid doctrines to others'
p124
S'and he teaches the aforesaid doctrines to others."'
p125
tp126
a(S'that is the nature of the accusation and that is what you have seen yourselves in the comedy of aristophanes'
p127
S'That is the nature of the accusation, and that is what you have seen yourselves in the comedy of Aristophanes;'
p128
tp129
a(S'who has introduced a man whom he calls socrates going about and saying that he can walk in the air and talking a deal of nonsense concerning matters of which i do not pretend to know either much or little  not that i mean to say anything disparaging of anyone who is a student of natural philosophy'
p130
S'who has introduced a man whom he calls Socrates, going about and saying that he can walk in the air, and talking a deal of nonsense concerning matters of which I do not pretend to know either much or little - not that I mean to say anything disparaging of anyone who is a student of natural philosophy.'
p131
tp132
a(S'i should be very sorry if meletus could lay that to my charge'
p133
S'I should be very sorry if Meletus could lay that to my charge.'
p134
tp135
a(S'but the simple truth is o athenians that i have nothing to do with these studies'
p136
S'But the simple truth is, O Athenians, that I have nothing to do with these studies.'
p137
tp138
a(S'very many of those here present are witnesses to the truth of this and to them i appeal'
p139
S'Very many of those here present are witnesses to the truth of this, and to them I appeal.'
p140
tp141
a(S'speak then you who have heard me and tell your neighbors whether any of you have ever known me hold forth in few words or in many upon matters of this sort'
p142
S'Speak then, you who have heard me, and tell your neighbors whether any of you have ever known me hold forth in few words or in many upon matters of this sort.'
p143
tp144
a(S''
p145
S'...'
p146
tp147
a(S'you hear their answer'
p148
S'You hear their answer.'
p149
tp150
a(S'and from what they say of this you will be able to judge of the truth of the rest'
p151
S'And from what they say of this you will be able to judge of the truth of the rest.'
p152
tp153
a(S'as little foundation is there for the report that i am a teacher and take money'
p154
S'As little foundation is there for the report that I am a teacher, and take money;'
p155
tp156
a(S'that is no more true than the other'
p157
S'that is no more true than the other.'
p158
tp159
a(S'although if a man is able to teach i honor him for being paid'
p160
S'Although, if a man is able to teach, I honor him for being paid.'
p161
tp162
a(S'there is gorgias of leontium and prodicus of ceos and hippias of elis who go the round of the cities and are able to persuade the young men to leave their own citizens by whom they might be taught for nothing and come to them whom they not only pay but are thankful if they may be allowed to pay them'
p163
S'There is Gorgias of Leontium, and Prodicus of Ceos, and Hippias of Elis, who go the round of the cities, and are able to persuade the young men to leave their own citizens, by whom they might be taught for nothing, and come to them, whom they not only pay, but are thankful if they may be allowed to pay them.'
p164
tp165
a(S'there is actually a parian philosopher residing in athens of whom i have heard'
p166
S'There is actually a Parian philosopher residing in Athens, of whom I have heard;'
p167
tp168
a(S'and i came to hear of him in this way  i met a man who has spent a world of money on the sophists callias the son of hipponicus and knowing that he had sons i asked him callias i said if your two sons were foals or calves there would be no difficulty in finding someone to put over them'
p169
S'and I came to hear of him in this way: - I met a man who has spent a world of money on the Sophists, Callias the son of Hipponicus, and knowing that he had sons, I asked him: "Callias," I said, "if your two sons were foals or calves, there would be no difficulty in finding someone to put over them;'
p170
tp171
a(S'we should hire a trainer of horses or a farmer probably who would improve and perfect them in their own proper virtue and excellence'
p172
S'we should hire a trainer of horses or a farmer probably who would improve and perfect them in their own proper virtue and excellence;'
p173
tp174
a(S'but as they are human beings whom are you thinking of placing over them'
p175
S'but as they are human beings, whom are you thinking of placing over them?'
p176
tp177
a(S'is there anyone who understands human and political virtue'
p178
S'Is there anyone who understands human and political virtue?'
p179
tp180
a(S'you must have thought about this as you have sons'
p181
S'You must have thought about this as you have sons;'
p182
tp183
a(S'is there anyone'
p184
S'is there anyone?"'
p185
tp186
a(S'there is he said'
p187
S'"There is," he said.'
p188
tp189
a(S'who is he'
p190
S'"Who is he?"'
p191
tp192
a(S'said i and of what country'
p193
S'said I, "and of what country?'
p194
tp195
a(S'and what does he charge'
p196
S'and what does he charge?"'
p197
tp198
a(S'evenus the parian he replied'
p199
S'"Evenus the Parian," he replied;'
p200
tp201
a(S'he is the man and his charge is five minae'
p202
S'"he is the man, and his charge is five minae."'
p203
tp204
a(S'happy is evenus i said to myself if he really has this wisdom and teaches at such a modest charge'
p205
S'Happy is Evenus, I said to myself, if he really has this wisdom, and teaches at such a modest charge.'
p206
tp207
a(S'had i the same i should have been very proud and conceited'
p208
S'Had I the same, I should have been very proud and conceited;'
p209
tp210
a(S'but the truth is that i have no knowledge of the kind'
p211
S'but the truth is that I have no knowledge of the kind.'
p212
tp213
a(S'i dare say athenians that someone among you will reply why is this socrates and what is the origin of these accusations of you for there must have been something strange which you have been doing'
p214
S'I dare say, Athenians, that someone among you will reply, "Why is this, Socrates, and what is the origin of these accusations of you: for there must have been something strange which you have been doing?'
p215
tp216
a(S'all this great fame and talk about you would never have arisen if you had been like other men tell us then why this is as we should be sorry to judge hastily of you'
p217
S'All this great fame and talk about you would never have arisen if you had been like other men: tell us, then, why this is, as we should be sorry to judge hastily of you."'
p218
tp219
a(S'now i regard this as a fair challenge and i will endeavor to explain to you the origin of this name of wise and of this evil fame'
p220
S'Now I regard this as a fair challenge, and I will endeavor to explain to you the origin of this name of "wise," and of this evil fame.'
p221
tp222
a(S'please to attend then'
p223
S'Please to attend then.'
p224
tp225
a(S'and although some of you may think i am joking i declare that i will tell you the entire truth'
p226
S'And although some of you may think I am joking, I declare that I will tell you the entire truth.'
p227
tp228
a(S'men of athens this reputation of mine has come of a certain sort of wisdom which i possess'
p229
S'Men of Athens, this reputation of mine has come of a certain sort of wisdom which I possess.'
p230
tp231
a(S'if you ask me what kind of wisdom i reply such wisdom as is attainable by man for to that extent i am inclined to believe that i am wise'
p232
S'If you ask me what kind of wisdom, I reply, such wisdom as is attainable by man, for to that extent I am inclined to believe that I am wise;'
p233
tp234
a(S'whereas the persons of whom i was speaking have a superhuman wisdom which i may fail to describe because i have it not myself'
p235
S'whereas the persons of whom I was speaking have a superhuman wisdom, which I may fail to describe, because I have it not myself;'
p236
tp237
a(S'and he who says that i have speaks falsely and is taking away my character'
p238
S'and he who says that I have, speaks falsely, and is taking away my character.'
p239
tp240
a(S'and here o men of athens i must beg you not to interrupt me even if i seem to say something extravagant'
p241
S'And here, O men of Athens, I must beg you not to interrupt me, even if I seem to say something extravagant.'
p242
tp243
a(S'for the word which i will speak is not mine'
p244
S'For the word which I will speak is not mine.'
p245
tp246
a(S'i will refer you to a witness who is worthy of credit and will tell you about my wisdom  whether i have any and of what sort  and that witness shall be the god of delphi'
p247
S'I will refer you to a witness who is worthy of credit, and will tell you about my wisdom - whether I have any, and of what sort - and that witness shall be the god of Delphi.'
p248
tp249
a(S'you must have known chaerephon'
p250
S'You must have known Chaerephon;'
p251
tp252
a(S'he was early a friend of mine and also a friend of yours for he shared in the exile of the people and returned with you'
p253
S'he was early a friend of mine, and also a friend of yours, for he shared in the exile of the people, and returned with you.'
p254
tp255
a(S'well chaerephon as you know was very impetuous in all his doings and he went to delphi and boldly asked the oracle to tell him whether  as i was saying i must beg you not to interrupt  he asked the oracle to tell him whether there was anyone wiser than i was and the pythian prophetess answered that there was no man wiser'
p256
S'Well, Chaerephon, as you know, was very impetuous in all his doings, and he went to Delphi and boldly asked the oracle to tell him whether - as I was saying, I must beg you not to interrupt - he asked the oracle to tell him whether there was anyone wiser than I was, and the Pythian prophetess answered that there was no man wiser.'
p257
tp258
a(S'chaerephon is dead himself but his brother who is in court will confirm the truth of this story'
p259
S'Chaerephon is dead himself, but his brother, who is in court, will confirm the truth of this story.'
p260
tp261
a(S'why do i mention this'
p262
S'Why do I mention this?'
p263
tp264
a(S'because i am going to explain to you why i have such an evil name'
p265
S'Because I am going to explain to you why I have such an evil name.'
p266
tp267
a(S'when i heard the answer i said to myself what can the god mean'
p268
S'When I heard the answer, I said to myself, What can the god mean?'
p269
tp270
a(S'and what is the interpretation of this riddle'
p271
S'and what is the interpretation of this riddle?'
p272
tp273
a(S'for i know that i have no wisdom small or great'
p274
S'for I know that I have no wisdom, small or great.'
p275
tp276
a(S'what can he mean when he says that i am the wisest of men'
p277
S'What can he mean when he says that I am the wisest of men?'
p278
tp279
a(S'and yet he is a god and cannot lie'
p280
S'And yet he is a god and cannot lie;'
p281
tp282
a(S'that would be against his nature'
p283
S'that would be against his nature.'
p284
tp285
a(S'after a long consideration i at last thought of a method of trying the question'
p286
S'After a long consideration, I at last thought of a method of trying the question.'
p287
tp288
a(S'i reflected that if i could only find a man wiser than myself then i might go to the god with a refutation in my hand'
p289
S'I reflected that if I could only find a man wiser than myself, then I might go to the god with a refutation in my hand.'
p290
tp291
a(S'i should say to him here is a man who is wiser than i am'
p292
S'I should say to him, "Here is a man who is wiser than I am;'
p293
tp294
a(S'but you said that i was the wisest'
p295
S'but you said that I was the wisest."'
p296
tp297
a(S'accordingly i went to one who had the reputation of wisdom and observed to him  his name i need not mention'
p298
S'Accordingly I went to one who had the reputation of wisdom, and observed to him - his name I need not mention;'
p299
tp300
a(S'he was a politician whom i selected for examination  and the result was as follows when i began to talk with him i could not help thinking that he was not really wise although he was thought wise by many and wiser still by himself'
p301
S'he was a politician whom I selected for examination - and the result was as follows: When I began to talk with him, I could not help thinking that he was not really wise, although he was thought wise by many, and wiser still by himself;'
p302
tp303
a(S'and i went and tried to explain to him that he thought himself wise but was not really wise'
p304
S'and I went and tried to explain to him that he thought himself wise, but was not really wise;'
p305
tp306
a(S'and the consequence was that he hated me and his enmity was shared by several who were present and heard me'
p307
S'and the consequence was that he hated me, and his enmity was shared by several who were present and heard me.'
p308
tp309
a(S'so i left him saying to myself as i went away well although i do not suppose that either of us knows anything really beautiful and good i am better off than he is  for he knows nothing and thinks that he knows'
p310
S'So I left him, saying to myself, as I went away: Well, although I do not suppose that either of us knows anything really beautiful and good, I am better off than he is - for he knows nothing, and thinks that he knows.'
p311
tp312
a(S'i neither know nor think that i know'
p313
S'I neither know nor think that I know.'
p314
tp315
a(S'in this latter particular then i seem to have slightly the advantage of him'
p316
S'In this latter particular, then, I seem to have slightly the advantage of him.'
p317
tp318
a(S'then i went to another who had still higher philosophical pretensions and my conclusion was exactly the same'
p319
S'Then I went to another, who had still higher philosophical pretensions, and my conclusion was exactly the same.'
p320
tp321
a(S'i made another enemy of him and of many others besides him'
p322
S'I made another enemy of him, and of many others besides him.'
p323
tp324
a(S'after this i went to one man after another being not unconscious of the enmity which i provoked and i lamented and feared this but necessity was laid upon me  the word of god i thought ought to be considered first'
p325
S'After this I went to one man after another, being not unconscious of the enmity which I provoked, and I lamented and feared this: but necessity was laid upon me - the word of God, I thought, ought to be considered first.'
p326
tp327
a(S'and i said to myself go i must to all who appear to know and find out the meaning of the oracle'
p328
S'And I said to myself, Go I must to all who appear to know, and find out the meaning of the oracle.'
p329
tp330
a(S'and i swear to you athenians by the dog i swear'
p331
S'And I swear to you, Athenians, by the dog I swear!'
p332
tp333
a(S' for i must tell you the truth  the result of my mission was just this i found that the men most in repute were all but the most foolish'
p334
S'- for I must tell you the truth - the result of my mission was just this: I found that the men most in repute were all but the most foolish;'
p335
tp336
a(S'and that some inferior men were really wiser and better'
p337
S'and that some inferior men were really wiser and better.'
p338
tp339
a(S'i will tell you the tale of my wanderings and of the herculean labors as i may call them which i endured only to find at last the oracle irrefutable'
p340
S'I will tell you the tale of my wanderings and of the "Herculean" labors, as I may call them, which I endured only to find at last the oracle irrefutable.'
p341
tp342
a(S'when i left the politicians i went to the poets'
p343
S'When I left the politicians, I went to the poets;'
p344
tp345
a(S'tragic dithyrambic and all sorts'
p346
S'tragic, dithyrambic, and all sorts.'
p347
tp348
a(S'and there i said to myself you will be detected'
p349
S'And there, I said to myself, you will be detected;'
p350
tp351
a(S'now you will find out that you are more ignorant than they are'
p352
S'now you will find out that you are more ignorant than they are.'
p353
tp354
a(S'accordingly i took them some of the most elaborate passages in their own writings and asked what was the meaning of them  thinking that they would teach me something'
p355
S'Accordingly, I took them some of the most elaborate passages in their own writings, and asked what was the meaning of them - thinking that they would teach me something.'
p356
tp357
a(S'will you believe me'
p358
S'Will you believe me?'
p359
tp360
a(S'i am almost ashamed to speak of this but still i must say that there is hardly a person present who would not have talked better about their poetry than they did themselves'
p361
S'I am almost ashamed to speak of this, but still I must say that there is hardly a person present who would not have talked better about their poetry than they did themselves.'
p362
tp363
a(S'that showed me in an instant that not by wisdom do poets write poetry but by a sort of genius and inspiration'
p364
S'That showed me in an instant that not by wisdom do poets write poetry, but by a sort of genius and inspiration;'
p365
tp366
a(S'they are like diviners or soothsayers who also say many fine things but do not understand the meaning of them'
p367
S'they are like diviners or soothsayers who also say many fine things, but do not understand the meaning of them.'
p368
tp369
a(S'and the poets appeared to me to be much in the same case'
p370
S'And the poets appeared to me to be much in the same case;'
p371
tp372
a(S'and i further observed that upon the strength of their poetry they believed themselves to be the wisest of men in other things in which they were not wise'
p373
S'and I further observed that upon the strength of their poetry they believed themselves to be the wisest of men in other things in which they were not wise.'
p374
tp375
a(S'so i departed conceiving myself to be superior to them for the same reason that i was superior to the politicians'
p376
S'So I departed, conceiving myself to be superior to them for the same reason that I was superior to the politicians.'
p377
tp378
a(S'at last i went to the artisans for i was conscious that i knew nothing at all as i may say and i was sure that they knew many fine things'
p379
S'At last I went to the artisans, for I was conscious that I knew nothing at all, as I may say, and I was sure that they knew many fine things;'
p380
tp381
a(S'and in this i was not mistaken for they did know many things of which i was ignorant and in this they certainly were wiser than i was'
p382
S'and in this I was not mistaken, for they did know many things of which I was ignorant, and in this they certainly were wiser than I was.'
p383
tp384
a(S'but i observed that even the good artisans fell into the same error as the poets'
p385
S'But I observed that even the good artisans fell into the same error as the poets;'
p386
tp387
a(S'because they were good workmen they thought that they also knew all sorts of high matters and this defect in them overshadowed their wisdom  therefore i asked myself on behalf of the oracle whether i would like to be as i was neither having their knowledge nor their ignorance or like them in both'
p388
S'because they were good workmen they thought that they also knew all sorts of high matters, and this defect in them overshadowed their wisdom - therefore I asked myself on behalf of the oracle, whether I would like to be as I was, neither having their knowledge nor their ignorance, or like them in both;'
p389
tp390
a(S'and i made answer to myself and the oracle that i was better off as i was'
p391
S'and I made answer to myself and the oracle that I was better off as I was.'
p392
tp393
a(S'this investigation has led to my having many enemies of the worst and most dangerous kind and has given occasion also to many calumnies and i am called wise for my hearers always imagine that i myself possess the wisdom which i find wanting in others but the truth is o men of athens that god only is wise'
p394
S'This investigation has led to my having many enemies of the worst and most dangerous kind, and has given occasion also to many calumnies, and I am called wise, for my hearers always imagine that I myself possess the wisdom which I find wanting in others: but the truth is, O men of Athens, that God only is wise;'
p395
tp396
a(S'and in this oracle he means to say that the wisdom of men is little or nothing'
p397
S'and in this oracle he means to say that the wisdom of men is little or nothing;'
p398
tp399
a(S'he is not speaking of socrates he is only using my name as an illustration as if he said he o men is the wisest who like socrates knows that his wisdom is in truth worth nothing'
p400
S'he is not speaking of Socrates, he is only using my name as an illustration, as if he said, He, O men, is the wisest, who, like Socrates, knows that his wisdom is in truth worth nothing.'
p401
tp402
a(S'and so i go my way obedient to the god and make inquisition into the wisdom of anyone whether citizen or stranger who appears to be wise'
p403
S'And so I go my way, obedient to the god, and make inquisition into the wisdom of anyone, whether citizen or stranger, who appears to be wise;'
p404
tp405
a(S'and if he is not wise then in vindication of the oracle i show him that he is not wise'
p406
S'and if he is not wise, then in vindication of the oracle I show him that he is not wise;'
p407
tp408
a(S'and this occupation quite absorbs me and i have no time to give either to any public matter of interest or to any concern of my own but i am in utter poverty by reason of my devotion to the god'
p409
S'and this occupation quite absorbs me, and I have no time to give either to any public matter of interest or to any concern of my own, but I am in utter poverty by reason of my devotion to the god.'
p410
tp411
a(S'there is another thing  young men of the richer classes who have not much to do come about me of their own accord'
p412
S'There is another thing: - young men of the richer classes, who have not much to do, come about me of their own accord;'
p413
tp414
a(S'they like to hear the pretenders examined and they often imitate me and examine others themselves'
p415
S'they like to hear the pretenders examined, and they often imitate me, and examine others themselves;'
p416
tp417
a(S'there are plenty of persons as they soon enough discover who think that they know something but really know little or nothing and then those who are examined by them instead of being angry with themselves are angry with me this confounded socrates they say'
p418
S'there are plenty of persons, as they soon enough discover, who think that they know something, but really know little or nothing: and then those who are examined by them instead of being angry with themselves are angry with me: This confounded Socrates, they say;'
p419
tp420
a(S'this villainous misleader of youth'
p421
S'this villainous misleader of youth!'
p422
tp423
a(S' and then if somebody asks them why what evil does he practise or teach'
p424
S'- and then if somebody asks them, Why, what evil does he practise or teach?'
p425
tp426
a(S'they do not know and cannot tell'
p427
S'they do not know, and cannot tell;'
p428
tp429
a(S'but in order that they may not appear to be at a loss they repeat the readymade charges which are used against all philosophers about teaching things up in the clouds and under the earth and having no gods and making the worse appear the better cause'
p430
S'but in order that they may not appear to be at a loss, they repeat the ready-made charges which are used against all philosophers about teaching things up in the clouds and under the earth, and having no gods, and making the worse appear the better cause;'
p431
tp432
a(S'for they do not like to confess that their pretence of knowledge has been detected  which is the truth and as they are numerous and ambitious and energetic and are all in battle array and have persuasive tongues they have filled your ears with their loud and inveterate calumnies'
p433
S'for they do not like to confess that their pretence of knowledge has been detected - which is the truth: and as they are numerous and ambitious and energetic, and are all in battle array and have persuasive tongues, they have filled your ears with their loud and inveterate calumnies.'
p434
tp435
a(S'and this is the reason why my three accusers meletus and anytus and lycon have set upon me'
p436
S'And this is the reason why my three accusers, Meletus and Anytus and Lycon, have set upon me;'
p437
tp438
a(S'meletus who has a quarrel with me on behalf of the poets'
p439
S'Meletus, who has a quarrel with me on behalf of the poets;'
p440
tp441
a(S'anytus on behalf of the craftsmen'
p442
S'Anytus, on behalf of the craftsmen;'
p443
tp444
a(S'lycon on behalf of the rhetoricians and as i said at the beginning i cannot expect to get rid of this mass of calumny all in a moment'
p445
S'Lycon, on behalf of the rhetoricians: and as I said at the beginning, I cannot expect to get rid of this mass of calumny all in a moment.'
p446
tp447
a(S'and this o men of athens is the truth and the whole truth'
p448
S'And this, O men of Athens, is the truth and the whole truth;'
p449
tp450
a(S'i have concealed nothing i have dissembled nothing'
p451
S'I have concealed nothing, I have dissembled nothing.'
p452
tp453
a(S'and yet i know that this plainness of speech makes them hate me and what is their hatred but a proof that i am speaking the truth'
p454
S'And yet I know that this plainness of speech makes them hate me, and what is their hatred but a proof that I am speaking the truth?'
p455
tp456
a(S' this is the occasion and reason of their slander of me as you will find out either in this or in any future inquiry'
p457
S'- this is the occasion and reason of their slander of me, as you will find out either in this or in any future inquiry.'
p458
tp459
a(S'i have said enough in my defence against the first class of my accusers'
p460
S'I have said enough in my defence against the first class of my accusers;'
p461
tp462
a(S'i turn to the second class who are headed by meletus that good and patriotic man as he calls himself'
p463
S'I turn to the second class, who are headed by Meletus, that good and patriotic man, as he calls himself.'
p464
tp465
a(S'and now i will try to defend myself against them these new accusers must also have their affidavit read'
p466
S'And now I will try to defend myself against them: these new accusers must also have their affidavit read.'
p467
tp468
a(S'what do they say'
p469
S'What do they say?'
p470
tp471
a(S'something of this sort  that socrates is a doer of evil and corrupter of the youth and he does not believe in the gods of the state and has other new divinities of his own'
p472
S'Something of this sort: - That Socrates is a doer of evil, and corrupter of the youth, and he does not believe in the gods of the state, and has other new divinities of his own.'
p473
tp474
a(S'that is the sort of charge'
p475
S'That is the sort of charge;'
p476
tp477
a(S'and now let us examine the particular counts'
p478
S'and now let us examine the particular counts.'
p479
tp480
a(S'he says that i am a doer of evil who corrupt the youth'
p481
S'He says that I am a doer of evil, who corrupt the youth;'
p482
tp483
a(S'but i say o men of athens that meletus is a doer of evil and the evil is that he makes a joke of a serious matter and is too ready at bringing other men to trial from a pretended zeal and interest about matters in which he really never had the smallest interest'
p484
S'but I say, O men of Athens, that Meletus is a doer of evil, and the evil is that he makes a joke of a serious matter, and is too ready at bringing other men to trial from a pretended zeal and interest about matters in which he really never had the smallest interest.'
p485
tp486
a(S'and the truth of this i will endeavor to prove'
p487
S'And the truth of this I will endeavor to prove.'
p488
tp489
a(S'come hither meletus and let me ask a question of you'
p490
S'Come hither, Meletus, and let me ask a question of you.'
p491
tp492
a(S'you think a great deal about the improvement of youth'
p493
S'You think a great deal about the improvement of youth?'
p494
tp495
a(S'yes i do'
p496
S'Yes, I do.'
p497
tp498
a(S'tell the judges then who is their improver'
p499
S'Tell the judges, then, who is their improver;'
p500
tp501
a(S'for you must know as you have taken the pains to discover their corrupter and are citing and accusing me before them'
p502
S'for you must know, as you have taken the pains to discover their corrupter, and are citing and accusing me before them.'
p503
tp504
a(S'speak then and tell the judges who their improver is'
p505
S'Speak, then, and tell the judges who their improver is.'
p506
tp507
a(S'observe meletus that you are silent and have nothing to say'
p508
S'Observe, Meletus, that you are silent, and have nothing to say.'
p509
tp510
a(S'but is not this rather disgraceful and a very considerable proof of what i was saying that you have no interest in the matter'
p511
S'But is not this rather disgraceful, and a very considerable proof of what I was saying, that you have no interest in the matter?'
p512
tp513
a(S'speak up friend and tell us who their improver is'
p514
S'Speak up, friend, and tell us who their improver is.'
p515
tp516
a(S'the laws'
p517
S'The laws.'
p518
tp519
a(S'but that my good sir is not my meaning'
p520
S'But that, my good sir, is not my meaning.'
p521
tp522
a(S'i want to know who the person is who in the first place knows the laws'
p523
S'I want to know who the person is, who, in the first place, knows the laws.'
p524
tp525
a(S'the judges socrates who are present in court'
p526
S'The judges, Socrates, who are present in court.'
p527
tp528
a(S'what do you mean to say meletus that they are able to instruct and improve youth'
p529
S'What do you mean to say, Meletus, that they are able to instruct and improve youth?'
p530
tp531
a(S'certainly they are'
p532
S'Certainly they are.'
p533
tp534
a(S'what all of them or some only and not others'
p535
S'What, all of them, or some only and not others?'
p536
tp537
a(S'all of them'
p538
S'All of them.'
p539
tp540
a(S'by the goddess here that is good news'
p541
S'By the goddess Here, that is good news!'
p542
tp543
a(S'there are plenty of improvers then'
p544
S'There are plenty of improvers, then.'
p545
tp546
a(S'and what do you say of the audience  do they improve them'
p547
S'And what do you say of the audience, - do they improve them?'
p548
tp549
a(S'yes they do'
p550
S'Yes, they do.'
p551
tp552
a(S'and the senators'
p553
S'And the senators?'
p554
tp555
a(S'yes the senators improve them'
p556
S'Yes, the senators improve them.'
p557
tp558
a(S'but perhaps the members of the citizen assembly corrupt them'
p559
S'But perhaps the members of the citizen assembly corrupt them?'
p560
tp561
a(S' or do they too improve them'
p562
S'- or do they too improve them?'
p563
tp564
a(S'they improve them'
p565
S'They improve them.'
p566
tp567
a(S'then every athenian improves and elevates them'
p568
S'Then every Athenian improves and elevates them;'
p569
tp570
a(S'all with the exception of myself'
p571
S'all with the exception of myself;'
p572
tp573
a(S'and i alone am their corrupter'
p574
S'and I alone am their corrupter?'
p575
tp576
a(S'is that what you affirm'
p577
S'Is that what you affirm?'
p578
tp579
a(S'that is what i stoutly affirm'
p580
S'That is what I stoutly affirm.'
p581
tp582
a(S'i am very unfortunate if that is true'
p583
S'I am very unfortunate if that is true.'
p584
tp585
a(S'but suppose i ask you a question would you say that this also holds true in the case of horses'
p586
S'But suppose I ask you a question: Would you say that this also holds true in the case of horses?'
p587
tp588
a(S'does one man do them harm and all the world good'
p589
S'Does one man do them harm and all the world good?'
p590
tp591
a(S'is not the exact opposite of this true'
p592
S'Is not the exact opposite of this true?'
p593
tp594
a(S'one man is able to do them good or at least not many'
p595
S'One man is able to do them good, or at least not many;'
p596
tp597
a(S' the trainer of horses that is to say does them good and others who have to do with them rather injure them'
p598
S'- the trainer of horses, that is to say, does them good, and others who have to do with them rather injure them?'
p599
tp600
a(S'is not that true meletus of horses or any other animals'
p601
S'Is not that true, Meletus, of horses, or any other animals?'
p602
tp603
a(S'yes certainly'
p604
S'Yes, certainly.'
p605
tp606
a(S'whether you and anytus say yes or no that is no matter'
p607
S'Whether you and Anytus say yes or no, that is no matter.'
p608
tp609
a(S'happy indeed would be the condition of youth if they had one corrupter only and all the rest of the world were their improvers'
p610
S'Happy indeed would be the condition of youth if they had one corrupter only, and all the rest of the world were their improvers.'
p611
tp612
a(S'and you meletus have sufficiently shown that you never had a thought about the young your carelessness is seen in your not caring about matters spoken of in this very indictment'
p613
S'And you, Meletus, have sufficiently shown that you never had a thought about the young: your carelessness is seen in your not caring about matters spoken of in this very indictment.'
p614
tp615
a(S'and now meletus i must ask you another question which is better to live among bad citizens or among good ones'
p616
S'And now, Meletus, I must ask you another question: Which is better, to live among bad citizens, or among good ones?'
p617
tp618
a(S'answer friend i say'
p619
S'Answer, friend, I say;'
p620
tp621
a(S'for that is a question which may be easily answered'
p622
S'for that is a question which may be easily answered.'
p623
tp624
a(S'do not the good do their neighbors good and the bad do them evil'
p625
S'Do not the good do their neighbors good, and the bad do them evil?'
p626
tp627
a(S'certainly'
p628
S'Certainly.'
p629
tp630
a(S'and is there anyone who would rather be injured than benefited by those who live with him'
p631
S'And is there anyone who would rather be injured than benefited by those who live with him?'
p632
tp633
a(S'answer my good friend'
p634
S'Answer, my good friend;'
p635
tp636
a(S'the law requires you to answer  does anyone like to be injured'
p637
S'the law requires you to answer - does anyone like to be injured?'
p638
tp639
a(S'certainly not'
p640
S'Certainly not.'
p641
tp642
a(S'and when you accuse me of corrupting and deteriorating the youth do you allege that i corrupt them intentionally or unintentionally'
p643
S'And when you accuse me of corrupting and deteriorating the youth, do you allege that I corrupt them intentionally or unintentionally?'
p644
tp645
a(S'intentionally i say'
p646
S'Intentionally, I say.'
p647
tp648
a(S'but you have just admitted that the good do their neighbors good and the evil do them evil'
p649
S'But you have just admitted that the good do their neighbors good, and the evil do them evil.'
p650
tp651
a(S'now is that a truth which your superior wisdom has recognized thus early in life and am i at my age in such darkness and ignorance as not to know that if a man with whom i have to live is corrupted by me i am very likely to be harmed by him and yet i corrupt him and intentionally too'
p652
S'Now is that a truth which your superior wisdom has recognized thus early in life, and am I, at my age, in such darkness and ignorance as not to know that if a man with whom I have to live is corrupted by me, I am very likely to be harmed by him, and yet I corrupt him, and intentionally, too;'
p653
tp654
a(S' that is what you are saying and of that you will never persuade me or any other human being'
p655
S'- that is what you are saying, and of that you will never persuade me or any other human being.'
p656
tp657
a(S'but either i do not corrupt them or i corrupt them unintentionally so that on either view of the case you lie'
p658
S'But either I do not corrupt them, or I corrupt them unintentionally, so that on either view of the case you lie.'
p659
tp660
a(S'if my offence is unintentional the law has no cognizance of unintentional offences you ought to have taken me privately and warned and admonished me'
p661
S'If my offence is unintentional, the law has no cognizance of unintentional offences: you ought to have taken me privately, and warned and admonished me;'
p662
tp663
a(S'for if i had been better advised i should have left off doing what i only did unintentionally  no doubt i should'
p664
S'for if I had been better advised, I should have left off doing what I only did unintentionally - no doubt I should;'
p665
tp666
a(S'whereas you hated to converse with me or teach me but you indicted me in this court which is a place not of instruction but of punishment'
p667
S'whereas you hated to converse with me or teach me, but you indicted me in this court, which is a place not of instruction, but of punishment.'
p668
tp669
a(S'i have shown athenians as i was saying that meletus has no care at all great or small about the matter'
p670
S'I have shown, Athenians, as I was saying, that Meletus has no care at all, great or small, about the matter.'
p671
tp672
a(S'but still i should like to know meletus in what i am affirmed to corrupt the young'
p673
S'But still I should like to know, Meletus, in what I am affirmed to corrupt the young.'
p674
tp675
a(S'i suppose you mean as i infer from your indictment that i teach them not to acknowledge the gods which the state acknowledges but some other new divinities or spiritual agencies in their stead'
p676
S'I suppose you mean, as I infer from your indictment, that I teach them not to acknowledge the gods which the state acknowledges, but some other new divinities or spiritual agencies in their stead.'
p677
tp678
a(S'these are the lessons which corrupt the youth as you say'
p679
S'These are the lessons which corrupt the youth, as you say.'
p680
tp681
a(S'yes that i say emphatically'
p682
S'Yes, that I say emphatically.'
p683
tp684
a(S'then by the gods meletus of whom we are speaking tell me and the court in somewhat plainer terms what you mean'
p685
S'Then, by the gods, Meletus, of whom we are speaking, tell me and the court, in somewhat plainer terms, what you mean!'
p686
tp687
a(S'for i do not as yet understand whether you affirm that i teach others to acknowledge some gods and therefore do believe in gods and am not an entire atheist  this you do not lay to my charge'
p688
S'for I do not as yet understand whether you affirm that I teach others to acknowledge some gods, and therefore do believe in gods and am not an entire atheist - this you do not lay to my charge;'
p689
tp690
a(S'but only that they are not the same gods which the city recognizes  the charge is that they are different gods'
p691
S'but only that they are not the same gods which the city recognizes - the charge is that they are different gods.'
p692
tp693
a(S'or do you mean to say that i am an atheist simply and a teacher of atheism'
p694
S'Or, do you mean to say that I am an atheist simply, and a teacher of atheism?'
p695
tp696
a(S'i mean the latter  that you are a complete atheist'
p697
S'I mean the latter - that you are a complete atheist.'
p698
tp699
a(S'that is an extraordinary statement meletus'
p700
S'That is an extraordinary statement, Meletus.'
p701
tp702
a(S'why do you say that'
p703
S'Why do you say that?'
p704
tp705
a(S'do you mean that i do not believe in the godhead of the sun or moon which is the common creed of all men'
p706
S'Do you mean that I do not believe in the godhead of the sun or moon, which is the common creed of all men?'
p707
tp708
a(S'i assure you judges that he does not believe in them'
p709
S'I assure you, judges, that he does not believe in them;'
p710
tp711
a(S'for he says that the sun is stone and the moon earth'
p712
S'for he says that the sun is stone, and the moon earth.'
p713
tp714
a(S'friend meletus you think that you are accusing anaxagoras'
p715
S'Friend Meletus, you think that you are accusing Anaxagoras;'
p716
tp717
a(S'and you have but a bad opinion of the judges if you fancy them ignorant to such a degree as not to know that those doctrines are found in the books of anaxagoras the clazomenian who is full of them'
p718
S'and you have but a bad opinion of the judges, if you fancy them ignorant to such a degree as not to know that those doctrines are found in the books of Anaxagoras the Clazomenian, who is full of them.'
p719
tp720
a(S'and these are the doctrines which the youth are said to learn of socrates when there are not unfrequently exhibitions of them at the theatre price of admission one drachma at the most'
p721
S'And these are the doctrines which the youth are said to learn of Socrates, when there are not unfrequently exhibitions of them at the theatre (price of admission one drachma at the most);'
p722
tp723
a(S'and they might cheaply purchase them and laugh at socrates if he pretends to father such eccentricities'
p724
S'and they might cheaply purchase them, and laugh at Socrates if he pretends to father such eccentricities.'
p725
tp726
a(S'and so meletus you really think that i do not believe in any god'
p727
S'And so, Meletus, you really think that I do not believe in any god?'
p728
tp729
a(S'i swear by zeus that you believe absolutely in none at all'
p730
S'I swear by Zeus that you believe absolutely in none at all.'
p731
tp732
a(S'you are a liar meletus not believed even by yourself'
p733
S'You are a liar, Meletus, not believed even by yourself.'
p734
tp735
a(S'for i cannot help thinking o men of athens that meletus is reckless and impudent and that he has written this indictment in a spirit of mere wantonness and youthful bravado'
p736
S'For I cannot help thinking, O men of Athens, that Meletus is reckless and impudent, and that he has written this indictment in a spirit of mere wantonness and youthful bravado.'
p737
tp738
a(S'has he not compounded a riddle thinking to try me'
p739
S'Has he not compounded a riddle, thinking to try me?'
p740
tp741
a(S'he said to himself  i shall see whether this wise socrates will discover my ingenious contradiction or whether i shall be able to deceive him and the rest of them'
p742
S'He said to himself: - I shall see whether this wise Socrates will discover my ingenious contradiction, or whether I shall be able to deceive him and the rest of them.'
p743
tp744
a(S'for he certainly does appear to me to contradict himself in the indictment as much as if he said that socrates is guilty of not believing in the gods and yet of believing in them  but this surely is a piece of fun'
p745
S'For he certainly does appear to me to contradict himself in the indictment as much as if he said that Socrates is guilty of not believing in the gods, and yet of believing in them - but this surely is a piece of fun.'
p746
tp747
a(S'i should like you o men of athens to join me in examining what i conceive to be his inconsistency'
p748
S'I should like you, O men of Athens, to join me in examining what I conceive to be his inconsistency;'
p749
tp750
a(S'and do you meletus answer'
p751
S'and do you, Meletus, answer.'
p752
tp753
a(S'and i must remind you that you are not to interrupt me if i speak in my accustomed manner'
p754
S'And I must remind you that you are not to interrupt me if I speak in my accustomed manner.'
p755
tp756
a(S'did ever man meletus believe in the existence of human things and not of human beings'
p757
S'Did ever man, Meletus, believe in the existence of human things, and not of human beings?'
p758
tp759
a(g145
S'...'
p760
tp761
a(S'i wish men of athens that he would answer and not be always trying to get up an interruption'
p762
S'I wish, men of Athens, that he would answer, and not be always trying to get up an interruption.'
p763
tp764
a(S'did ever any man believe in horsemanship and not in horses'
p765
S'Did ever any man believe in horsemanship, and not in horses?'
p766
tp767
a(S'or in fluteplaying and not in fluteplayers'
p768
S'or in flute-playing, and not in flute-players?'
p769
tp770
a(S'no my friend'
p771
S'No, my friend;'
p772
tp773
a(S'i will answer to you and to the court as you refuse to answer for yourself'
p774
S'I will answer to you and to the court, as you refuse to answer for yourself.'
p775
tp776
a(S'there is no man who ever did'
p777
S'There is no man who ever did.'
p778
tp779
a(S'but now please to answer the next question can a man believe in spiritual and divine agencies and not in spirits or demigods'
p780
S'But now please to answer the next question: Can a man believe in spiritual and divine agencies, and not in spirits or demigods?'
p781
tp782
a(S'he cannot'
p783
S'He cannot.'
p784
tp785
a(S'i am glad that i have extracted that answer by the assistance of the court'
p786
S'I am glad that I have extracted that answer, by the assistance of the court;'
p787
tp788
a(S'nevertheless you swear in the indictment that i teach and believe in divine or spiritual agencies new or old no matter for that'
p789
S'nevertheless you swear in the indictment that I teach and believe in divine or spiritual agencies (new or old, no matter for that);'
p790
tp791
a(S'at any rate i believe in spiritual agencies as you say and swear in the affidavit'
p792
S'at any rate, I believe in spiritual agencies, as you say and swear in the affidavit;'
p793
tp794
a(S'but if i believe in divine beings i must believe in spirits or demigods'
p795
S'but if I believe in divine beings, I must believe in spirits or demigods;'
p796
tp797
a(S' is not that true'
p798
S'- is not that true?'
p799
tp800
a(S'yes that is true for i may assume that your silence gives assent to that'
p801
S'Yes, that is true, for I may assume that your silence gives assent to that.'
p802
tp803
a(S'now what are spirits or demigods'
p804
S'Now what are spirits or demigods?'
p805
tp806
a(S'are they not either gods or the sons of gods'
p807
S'are they not either gods or the sons of gods?'
p808
tp809
a(S'is that true'
p810
S'Is that true?'
p811
tp812
a(S'yes that is true'
p813
S'Yes, that is true.'
p814
tp815
a(S'but this is just the ingenious riddle of which i was speaking the demigods or spirits are gods and you say first that i dont believe in gods and then again that i do believe in gods'
p816
S"But this is just the ingenious riddle of which I was speaking: the demigods or spirits are gods, and you say first that I don't believe in gods, and then again that I do believe in gods;"
p817
tp818
a(S'that is if i believe in demigods'
p819
S'that is, if I believe in demigods.'
p820
tp821
a(S'for if the demigods are the illegitimate sons of gods whether by the nymphs or by any other mothers as is thought that as all men will allow necessarily implies the existence of their parents'
p822
S'For if the demigods are the illegitimate sons of gods, whether by the Nymphs or by any other mothers, as is thought, that, as all men will allow, necessarily implies the existence of their parents.'
p823
tp824
a(S'you might as well affirm the existence of mules and deny that of horses and asses'
p825
S'You might as well affirm the existence of mules, and deny that of horses and asses.'
p826
tp827
a(S'such nonsense meletus could only have been intended by you as a trial of me'
p828
S'Such nonsense, Meletus, could only have been intended by you as a trial of me.'
p829
tp830
a(S'you have put this into the indictment because you had nothing real of which to accuse me'
p831
S'You have put this into the indictment because you had nothing real of which to accuse me.'
p832
tp833
a(S'but no one who has a particle of understanding will ever be convinced by you that the same man can believe in divine and superhuman things and yet not believe that there are gods and demigods and heroes'
p834
S'But no one who has a particle of understanding will ever be convinced by you that the same man can believe in divine and superhuman things, and yet not believe that there are gods and demigods and heroes.'
p835
tp836
a(S'i have said enough in answer to the charge of meletus any elaborate defence is unnecessary'
p837
S'I have said enough in answer to the charge of Meletus: any elaborate defence is unnecessary;'
p838
tp839
a(S'but as i was saying before i certainly have many enemies and this is what will be my destruction if i am destroyed'
p840
S'but as I was saying before, I certainly have many enemies, and this is what will be my destruction if I am destroyed;'
p841
tp842
a(S'of that i am certain'
p843
S'of that I am certain;'
p844
tp845
a(S' not meletus nor yet anytus but the envy and detraction of the world which has been the death of many good men and will probably be the death of many more'
p846
S'- not Meletus, nor yet Anytus, but the envy and detraction of the world, which has been the death of many good men, and will probably be the death of many more;'
p847
tp848
a(S'there is no danger of my being the last of them'
p849
S'there is no danger of my being the last of them.'
p850
tp851
a(S'someone will say and are you not ashamed socrates of a course of life which is likely to bring you to an untimely end'
p852
S'Someone will say: And are you not ashamed, Socrates, of a course of life which is likely to bring you to an untimely end?'
p853
tp854
a(S'to him i may fairly answer there you are mistaken a man who is good for anything ought not to calculate the chance of living or dying'
p855
S'To him I may fairly answer: There you are mistaken: a man who is good for anything ought not to calculate the chance of living or dying;'
p856
tp857
a(S'he ought only to consider whether in doing anything he is doing right or wrong  acting the part of a good man or of a bad'
p858
S'he ought only to consider whether in doing anything he is doing right or wrong - acting the part of a good man or of a bad.'
p859
tp860
a(S'whereas according to your view the heroes who fell at troy were not good for much and the son of thetis above all who altogether despised danger in comparison with disgrace'
p861
S'Whereas, according to your view, the heroes who fell at Troy were not good for much, and the son of Thetis above all, who altogether despised danger in comparison with disgrace;'
p862
tp863
a(S'and when his goddess mother said to him in his eagerness to slay hector that if he avenged his companion patroclus and slew hector he would die himself  fate as she said waits upon you next after hector'
p864
S'and when his goddess mother said to him, in his eagerness to slay Hector, that if he avenged his companion Patroclus, and slew Hector, he would die himself - "Fate," as she said, "waits upon you next after Hector";'
p865
tp866
a(S'he hearing this utterly despised danger and death and instead of fearing them feared rather to live in dishonor and not to avenge his friend'
p867
S'he, hearing this, utterly despised danger and death, and instead of fearing them, feared rather to live in dishonor, and not to avenge his friend.'
p868
tp869
a(S'let me die next he replies and be avenged of my enemy rather than abide here by the beaked ships a scorn and a burden of the earth'
p870
S'"Let me die next," he replies, "and be avenged of my enemy, rather than abide here by the beaked ships, a scorn and a burden of the earth."'
p871
tp872
a(S'had achilles any thought of death and danger'
p873
S'Had Achilles any thought of death and danger?'
p874
tp875
a(S'for wherever a mans place is whether the place which he has chosen or that in which he has been placed by a commander there he ought to remain in the hour of danger'
p876
S"For wherever a man's place is, whether the place which he has chosen or that in which he has been placed by a commander, there he ought to remain in the hour of danger;"
p877
tp878
a(S'he should not think of death or of anything but of disgrace'
p879
S'he should not think of death or of anything, but of disgrace.'
p880
tp881
a(S'and this o men of athens is a true saying'
p882
S'And this, O men of Athens, is a true saying.'
p883
tp884
a(S'strange indeed would be my conduct o men of athens if i who when i was ordered by the generals whom you chose to command me at potidaea and amphipolis and delium remained where they placed me like any other man facing death'
p885
S'Strange, indeed, would be my conduct, O men of Athens, if I who, when I was ordered by the generals whom you chose to command me at Potidaea and Amphipolis and Delium, remained where they placed me, like any other man, facing death;'
p886
tp887
a(S'if i say now when as i conceive and imagine god orders me to fulfil the philosophers mission of searching into myself and other men i were to desert my post through fear of death or any other fear'
p888
S"if, I say, now, when, as I conceive and imagine, God orders me to fulfil the philosopher's mission of searching into myself and other men, I were to desert my post through fear of death, or any other fear;"
p889
tp890
a(S'that would indeed be strange and i might justly be arraigned in court for denying the existence of the gods if i disobeyed the oracle because i was afraid of death then i should be fancying that i was wise when i was not wise'
p891
S'that would indeed be strange, and I might justly be arraigned in court for denying the existence of the gods, if I disobeyed the oracle because I was afraid of death: then I should be fancying that I was wise when I was not wise.'
p892
tp893
a(S'for this fear of death is indeed the pretence of wisdom and not real wisdom being the appearance of knowing the unknown'
p894
S'For this fear of death is indeed the pretence of wisdom, and not real wisdom, being the appearance of knowing the unknown;'
p895
tp896
a(S'since no one knows whether death which they in their fear apprehend to be the greatest evil may not be the greatest good'
p897
S'since no one knows whether death, which they in their fear apprehend to be the greatest evil, may not be the greatest good.'
p898
tp899
a(S'is there not here conceit of knowledge which is a disgraceful sort of ignorance'
p900
S'Is there not here conceit of knowledge, which is a disgraceful sort of ignorance?'
p901
tp902
a(S'and this is the point in which as i think i am superior to men in general and in which i might perhaps fancy myself wiser than other men  that whereas i know but little of the world below i do not suppose that i know but i do know that injustice and disobedience to a better whether god or man is evil and dishonorable and i will never fear or avoid a possible good rather than a certain evil'
p903
S'And this is the point in which, as I think, I am superior to men in general, and in which I might perhaps fancy myself wiser than other men, - that whereas I know but little of the world below, I do not suppose that I know: but I do know that injustice and disobedience to a better, whether God or man, is evil and dishonorable, and I will never fear or avoid a possible good rather than a certain evil.'
p904
tp905
a(S'and therefore if you let me go now and reject the counsels of anytus who said that if i were not put to death i ought not to have been prosecuted and that if i escape now your sons will all be utterly ruined by listening to my words  if you say to me socrates this time we will not mind anytus and will let you off but upon one condition that are to inquire and speculate in this way any more and that if you are caught doing this again you shall die'
p906
S'And therefore if you let me go now, and reject the counsels of Anytus, who said that if I were not put to death I ought not to have been prosecuted, and that if I escape now, your sons will all be utterly ruined by listening to my words - if you say to me, Socrates, this time we will not mind Anytus, and will let you off, but upon one condition, that are to inquire and speculate in this way any more, and that if you are caught doing this again you shall die;'
p907
tp908
a(S' if this was the condition on which you let me go i should reply men of athens i honor and love you'
p909
S'- if this was the condition on which you let me go, I should reply: Men of Athens, I honor and love you;'
p910
tp911
a(S'but i shall obey god rather than you and while i have life and strength i shall never cease from the practice and teaching of philosophy exhorting anyone whom i meet after my manner and convincing him saying o my friend why do you who are a citizen of the great and mighty and wise city of athens care so much about laying up the greatest amount of money and honor and reputation and so little about wisdom and truth and the greatest improvement of the soul which you never regard or heed at all'
p912
S'but I shall obey God rather than you, and while I have life and strength I shall never cease from the practice and teaching of philosophy, exhorting anyone whom I meet after my manner, and convincing him, saying: O my friend, why do you who are a citizen of the great and mighty and wise city of Athens, care so much about laying up the greatest amount of money and honor and reputation, and so little about wisdom and truth and the greatest improvement of the soul, which you never regard or heed at all?'
p913
tp914
a(S'are you not ashamed of this'
p915
S'Are you not ashamed of this?'
p916
tp917
a(S'and if the person with whom i am arguing says yes but i do care'
p918
S'And if the person with whom I am arguing says: Yes, but I do care;'
p919
tp920
a(S'i do not depart or let him go at once'
p921
S'I do not depart or let him go at once;'
p922
tp923
a(S'i interrogate and examine and crossexamine him and if i think that he has no virtue but only says that he has i reproach him with undervaluing the greater and overvaluing the less'
p924
S'I interrogate and examine and cross-examine him, and if I think that he has no virtue, but only says that he has, I reproach him with undervaluing the greater, and overvaluing the less.'
p925
tp926
a(S'and this i should say to everyone whom i meet young and old citizen and alien but especially to the citizens inasmuch as they are my brethren'
p927
S'And this I should say to everyone whom I meet, young and old, citizen and alien, but especially to the citizens, inasmuch as they are my brethren.'
p928
tp929
a(S'for this is the command of god as i would have you know'
p930
S'For this is the command of God, as I would have you know;'
p931
tp932
a(S'and i believe that to this day no greater good has ever happened in the state than my service to the god'
p933
S'and I believe that to this day no greater good has ever happened in the state than my service to the God.'
p934
tp935
a(S'for i do nothing but go about persuading you all old and young alike not to take thought for your persons and your properties but first and chiefly to care about the greatest improvement of the soul'
p936
S'For I do nothing but go about persuading you all, old and young alike, not to take thought for your persons and your properties, but first and chiefly to care about the greatest improvement of the soul.'
p937
tp938
a(S'i tell you that virtue is not given by money but that from virtue come money and every other good of man public as well as private'
p939
S'I tell you that virtue is not given by money, but that from virtue come money and every other good of man, public as well as private.'
p940
tp941
a(S'this is my teaching and if this is the doctrine which corrupts the youth my influence is ruinous indeed'
p942
S'This is my teaching, and if this is the doctrine which corrupts the youth, my influence is ruinous indeed.'
p943
tp944
a(S'but if anyone says that this is not my teaching he is speaking an untruth'
p945
S'But if anyone says that this is not my teaching, he is speaking an untruth.'
p946
tp947
a(S'wherefore o men of athens i say to you do as anytus bids or not as anytus bids and either acquit me or not'
p948
S'Wherefore, O men of Athens, I say to you, do as Anytus bids or not as Anytus bids, and either acquit me or not;'
p949
tp950
a(S'but whatever you do know that i shall never alter my ways not even if i have to die many times'
p951
S'but whatever you do, know that I shall never alter my ways, not even if I have to die many times.'
p952
tp953
a(S'men of athens do not interrupt but hear me'
p954
S'Men of Athens, do not interrupt, but hear me;'
p955
tp956
a(S'there was an agreement between us that you should hear me out'
p957
S'there was an agreement between us that you should hear me out.'
p958
tp959
a(S'and i think that what i am going to say will do you good for i have something more to say at which you may be inclined to cry out'
p960
S'And I think that what I am going to say will do you good: for I have something more to say, at which you may be inclined to cry out;'
p961
tp962
a(S'but i beg that you will not do this'
p963
S'but I beg that you will not do this.'
p964
tp965
a(S'i would have you know that if you kill such a one as i am you will injure yourselves more than you will injure me'
p966
S'I would have you know that, if you kill such a one as I am, you will injure yourselves more than you will injure me.'
p967
tp968
a(S'meletus and anytus will not injure me they cannot'
p969
S'Meletus and Anytus will not injure me: they cannot;'
p970
tp971
a(S'for it is not in the nature of things that a bad man should injure a better than himself'
p972
S'for it is not in the nature of things that a bad man should injure a better than himself.'
p973
tp974
a(S'i do not deny that he may perhaps kill him or drive him into exile or deprive him of civil rights'
p975
S'I do not deny that he may, perhaps, kill him, or drive him into exile, or deprive him of civil rights;'
p976
tp977
a(S'and he may imagine and others may imagine that he is doing him a great injury but in that i do not agree with him'
p978
S'and he may imagine, and others may imagine, that he is doing him a great injury: but in that I do not agree with him;'
p979
tp980
a(S'for the evil of doing as anytus is doing  of unjustly taking away another mans life  is greater far'
p981
S"for the evil of doing as Anytus is doing - of unjustly taking away another man's life - is greater far."
p982
tp983
a(S'and now athenians i am not going to argue for my own sake as you may think but for yours that you may not sin against the god or lightly reject his boon by condemning me'
p984
S'And now, Athenians, I am not going to argue for my own sake, as you may think, but for yours, that you may not sin against the God, or lightly reject his boon by condemning me.'
p985
tp986
a(S'for if you kill me you will not easily find another like me who if i may use such a ludicrous figure of speech am a sort of gadfly given to the state by the god'
p987
S'For if you kill me you will not easily find another like me, who, if I may use such a ludicrous figure of speech, am a sort of gadfly, given to the state by the God;'
p988
tp989
a(S'and the state is like a great and noble steed who is tardy in his motions owing to his very size and requires to be stirred into life'
p990
S'and the state is like a great and noble steed who is tardy in his motions owing to his very size, and requires to be stirred into life.'
p991
tp992
a(S'i am that gadfly which god has given the state and all day long and in all places am always fastening upon you arousing and persuading and reproaching you'
p993
S'I am that gadfly which God has given the state and all day long and in all places am always fastening upon you, arousing and persuading and reproaching you.'
p994
tp995
a(S'and as you will not easily find another like me i would advise you to spare me'
p996
S'And as you will not easily find another like me, I would advise you to spare me.'
p997
tp998
a(S'i dare say that you may feel irritated at being suddenly awakened when you are caught napping'
p999
S'I dare say that you may feel irritated at being suddenly awakened when you are caught napping;'
p1000
tp1001
a(S'and you may think that if you were to strike me dead as anytus advises which you easily might then you would sleep on for the remainder of your lives unless god in his care of you gives you another gadfly'
p1002
S'and you may think that if you were to strike me dead, as Anytus advises, which you easily might, then you would sleep on for the remainder of your lives, unless God in his care of you gives you another gadfly.'
p1003
tp1004
a(S'and that i am given to you by god is proved by this  that if i had been like other men i should not have neglected all my own concerns or patiently seen the neglect of them during all these years and have been doing yours coming to you individually like a father or elder brother exhorting you to regard virtue'
p1005
S'And that I am given to you by God is proved by this: - that if I had been like other men, I should not have neglected all my own concerns, or patiently seen the neglect of them during all these years, and have been doing yours, coming to you individually, like a father or elder brother, exhorting you to regard virtue;'
p1006
tp1007
a(S'this i say would not be like human nature'
p1008
S'this I say, would not be like human nature.'
p1009
tp1010
a(S'and had i gained anything or if my exhortations had been paid there would have been some sense in that but now as you will perceive not even the impudence of my accusers dares to say that i have ever exacted or sought pay of anyone'
p1011
S'And had I gained anything, or if my exhortations had been paid, there would have been some sense in that: but now, as you will perceive, not even the impudence of my accusers dares to say that I have ever exacted or sought pay of anyone;'
p1012
tp1013
a(S'they have no witness of that'
p1014
S'they have no witness of that.'
p1015
tp1016
a(S'and i have a witness of the truth of what i say'
p1017
S'And I have a witness of the truth of what I say;'
p1018
tp1019
a(S'my poverty is a sufficient witness'
p1020
S'my poverty is a sufficient witness.'
p1021
tp1022
a(S'someone may wonder why i go about in private giving advice and busying myself with the concerns of others but do not venture to come forward in public and advise the state'
p1023
S'Someone may wonder why I go about in private, giving advice and busying myself with the concerns of others, but do not venture to come forward in public and advise the state.'
p1024
tp1025
a(S'i will tell you the reason of this'
p1026
S'I will tell you the reason of this.'
p1027
tp1028
a(S'you have often heard me speak of an oracle or sign which comes to me and is the divinity which meletus ridicules in the indictment'
p1029
S'You have often heard me speak of an oracle or sign which comes to me, and is the divinity which Meletus ridicules in the indictment.'
p1030
tp1031
a(S'this sign i have had ever since i was a child'
p1032
S'This sign I have had ever since I was a child.'
p1033
tp1034
a(S'the sign is a voice which comes to me and always forbids me to do something which i am going to do but never commands me to do anything and this is what stands in the way of my being a politician'
p1035
S'The sign is a voice which comes to me and always forbids me to do something which I am going to do, but never commands me to do anything, and this is what stands in the way of my being a politician.'
p1036
tp1037
a(S'and rightly as i think'
p1038
S'And rightly, as I think.'
p1039
tp1040
a(S'for i am certain o men of athens that if i had engaged in politics i should have perished long ago and done no good either to you or to myself'
p1041
S'For I am certain, O men of Athens, that if I had engaged in politics, I should have perished long ago and done no good either to you or to myself.'
p1042
tp1043
a(S'and dont be offended at my telling you the truth for the truth is that no man who goes to war with you or any other multitude honestly struggling against the commission of unrighteousness and wrong in the state will save his life'
p1044
S"And don't be offended at my telling you the truth: for the truth is that no man who goes to war with you or any other multitude, honestly struggling against the commission of unrighteousness and wrong in the state, will save his life;"
p1045
tp1046
a(S'he who will really fight for the right if he would live even for a little while must have a private station and not a public one'
p1047
S'he who will really fight for the right, if he would live even for a little while, must have a private station and not a public one.'
p1048
tp1049
a(S'i can give you as proofs of this not words only but deeds which you value more than words'
p1050
S'I can give you as proofs of this, not words only, but deeds, which you value more than words.'
p1051
tp1052
a(S'let me tell you a passage of my own life which will prove to you that i should never have yielded to injustice from any fear of death and that if i had not yielded i should have died at once'
p1053
S'Let me tell you a passage of my own life, which will prove to you that I should never have yielded to injustice from any fear of death, and that if I had not yielded I should have died at once.'
p1054
tp1055
a(S'i will tell you a story  tasteless perhaps and commonplace but nevertheless true'
p1056
S'I will tell you a story - tasteless, perhaps, and commonplace, but nevertheless true.'
p1057
tp1058
a(S'the only office of state which i ever held o men of athens was that of senator'
p1059
S'The only office of state which I ever held, O men of Athens, was that of senator;'
p1060
tp1061
a(S'the tribe antiochis which is my tribe had the presidency at the trial of the generals who had not taken up the bodies of the slain after the battle of arginusae'
p1062
S'the tribe Antiochis, which is my tribe, had the presidency at the trial of the generals who had not taken up the bodies of the slain after the battle of Arginusae;'
p1063
tp1064
a(S'and you proposed to try them all together which was illegal as you all thought afterwards'
p1065
S'and you proposed to try them all together, which was illegal, as you all thought afterwards;'
p1066
tp1067
a(S'but at the time i was the only one of the prytanes who was opposed to the illegality and i gave my vote against you'
p1068
S'but at the time I was the only one of the Prytanes who was opposed to the illegality, and I gave my vote against you;'
p1069
tp1070
a(S'and when the orators threatened to impeach and arrest me and have me taken away and you called and shouted i made up my mind that i would run the risk having law and justice with me rather than take part in your injustice because i feared imprisonment and death'
p1071
S'and when the orators threatened to impeach and arrest me, and have me taken away, and you called and shouted, I made up my mind that I would run the risk, having law and justice with me, rather than take part in your injustice because I feared imprisonment and death.'
p1072
tp1073
a(S'this happened in the days of the democracy'
p1074
S'This happened in the days of the democracy.'
p1075
tp1076
a(S'but when the oligarchy of the thirty was in power they sent for me and four others into the rotunda and bade us bring leon the salaminian from salamis as they wanted to execute him'
p1077
S'But when the oligarchy of the Thirty was in power, they sent for me and four others into the rotunda, and bade us bring Leon the Salaminian from Salamis, as they wanted to execute him.'
p1078
tp1079
a(S'this was a specimen of the sort of commands which they were always giving with the view of implicating as many as possible in their crimes'
p1080
S'This was a specimen of the sort of commands which they were always giving with the view of implicating as many as possible in their crimes;'
p1081
tp1082
a(S'and then i showed not in words only but in deed that if i may be allowed to use such an expression i cared not a straw for death and that my only fear was the fear of doing an unrighteous or unholy thing'
p1083
S'and then I showed, not in words only, but in deed, that, if I may be allowed to use such an expression, I cared not a straw for death, and that my only fear was the fear of doing an unrighteous or unholy thing.'
p1084
tp1085
a(S'for the strong arm of that oppressive power did not frighten me into doing wrong'
p1086
S'For the strong arm of that oppressive power did not frighten me into doing wrong;'
p1087
tp1088
a(S'and when we came out of the rotunda the other four went to salamis and fetched leon but i went quietly home'
p1089
S'and when we came out of the rotunda the other four went to Salamis and fetched Leon, but I went quietly home.'
p1090
tp1091
a(S'for which i might have lost my life had not the power of the thirty shortly afterwards come to an end'
p1092
S'For which I might have lost my life, had not the power of the Thirty shortly afterwards come to an end.'
p1093
tp1094
a(S'and to this many will witness'
p1095
S'And to this many will witness.'
p1096
tp1097
a(S'now do you really imagine that i could have survived all these years if i had led a public life supposing that like a good man i had always supported the right and had made justice as i ought the first thing'
p1098
S'Now do you really imagine that I could have survived all these years, if I had led a public life, supposing that like a good man I had always supported the right and had made justice, as I ought, the first thing?'
p1099
tp1100
a(S'no indeed men of athens neither i nor any other'
p1101
S'No, indeed, men of Athens, neither I nor any other.'
p1102
tp1103
a(S'but i have been always the same in all my actions public as well as private and never have i yielded any base compliance to those who are slanderously termed my disciples or to any other'
p1104
S'But I have been always the same in all my actions, public as well as private, and never have I yielded any base compliance to those who are slanderously termed my disciples or to any other.'
p1105
tp1106
a(S'for the truth is that i have no regular disciples but if anyone likes to come and hear me while i am pursuing my mission whether he be young or old he may freely come'
p1107
S'For the truth is that I have no regular disciples: but if anyone likes to come and hear me while I am pursuing my mission, whether he be young or old, he may freely come.'
p1108
tp1109
a(S'nor do i converse with those who pay only and not with those who do not pay'
p1110
S'Nor do I converse with those who pay only, and not with those who do not pay;'
p1111
tp1112
a(S'but anyone whether he be rich or poor may ask and answer me and listen to my words'
p1113
S'but anyone, whether he be rich or poor, may ask and answer me and listen to my words;'
p1114
tp1115
a(S'and whether he turns out to be a bad man or a good one that cannot be justly laid to my charge as i never taught him anything'
p1116
S'and whether he turns out to be a bad man or a good one, that cannot be justly laid to my charge, as I never taught him anything.'
p1117
tp1118
a(S'and if anyone says that he has ever learned or heard anything from me in private which all the world has not heard i should like you to know that he is speaking an untruth'
p1119
S'And if anyone says that he has ever learned or heard anything from me in private which all the world has not heard, I should like you to know that he is speaking an untruth.'
p1120
tp1121
a(S'but i shall be asked why do people delight in continually conversing with you'
p1122
S'But I shall be asked, Why do people delight in continually conversing with you?'
p1123
tp1124
a(S'i have told you already athenians the whole truth about this they like to hear the crossexamination of the pretenders to wisdom'
p1125
S'I have told you already, Athenians, the whole truth about this: they like to hear the cross-examination of the pretenders to wisdom;'
p1126
tp1127
a(S'there is amusement in this'
p1128
S'there is amusement in this.'
p1129
tp1130
a(S'and this is a duty which the god has imposed upon me as i am assured by oracles visions and in every sort of way in which the will of divine power was ever signified to anyone'
p1131
S'And this is a duty which the God has imposed upon me, as I am assured by oracles, visions, and in every sort of way in which the will of divine power was ever signified to anyone.'
p1132
tp1133
a(S'this is true o athenians'
p1134
S'This is true, O Athenians;'
p1135
tp1136
a(S'or if not true would be soon refuted'
p1137
S'or, if not true, would be soon refuted.'
p1138
tp1139
a(S'for if i am really corrupting the youth and have corrupted some of them already those of them who have grown up and have become sensible that i gave them bad advice in the days of their youth should come forward as accusers and take their revenge'
p1140
S'For if I am really corrupting the youth, and have corrupted some of them already, those of them who have grown up and have become sensible that I gave them bad advice in the days of their youth should come forward as accusers and take their revenge;'
p1141
tp1142
a(S'and if they do not like to come themselves some of their relatives fathers brothers or other kinsmen should say what evil their families suffered at my hands'
p1143
S'and if they do not like to come themselves, some of their relatives, fathers, brothers, or other kinsmen, should say what evil their families suffered at my hands.'
p1144
tp1145
a(S'now is their time'
p1146
S'Now is their time.'
p1147
tp1148
a(S'many of them i see in the court'
p1149
S'Many of them I see in the court.'
p1150
tp1151
a(S'there is crito who is of the same age and of the same deme with myself'
p1152
S'There is Crito, who is of the same age and of the same deme with myself;'
p1153
tp1154
a(S'and there is critobulus his son whom i also see'
p1155
S'and there is Critobulus his son, whom I also see.'
p1156
tp1157
a(S'then again there is lysanias of sphettus who is the father of aeschines  he is present'
p1158
S'Then again there is Lysanias of Sphettus, who is the father of Aeschines - he is present;'
p1159
tp1160
a(S'and also there is antiphon of cephisus who is the father of epignes'
p1161
S'and also there is Antiphon of Cephisus, who is the father of Epignes;'
p1162
tp1163
a(S'and there are the brothers of several who have associated with me'
p1164
S'and there are the brothers of several who have associated with me.'
p1165
tp1166
a(S'there is nicostratus the son of theosdotides and the brother of theodotus now theodotus himself is dead and therefore he at any rate will not seek to stop him'
p1167
S'There is Nicostratus the son of Theosdotides, and the brother of Theodotus (now Theodotus himself is dead, and therefore he, at any rate, will not seek to stop him);'
p1168
tp1169
a(S'and there is paralus the son of demodocus who had a brother theages'
p1170
S'and there is Paralus the son of Demodocus, who had a brother Theages;'
p1171
tp1172
a(S'and adeimantus the son of ariston whose brother plato is present'
p1173
S'and Adeimantus the son of Ariston, whose brother Plato is present;'
p1174
tp1175
a(S'and aeantodorus who is the brother of apollodorus whom i also see'
p1176
S'and Aeantodorus, who is the brother of Apollodorus, whom I also see.'
p1177
tp1178
a(S'i might mention a great many others any of whom meletus should have produced as witnesses in the course of his speech'
p1179
S'I might mention a great many others, any of whom Meletus should have produced as witnesses in the course of his speech;'
p1180
tp1181
a(S'and let him still produce them if he has forgotten  i will make way for him'
p1182
S'and let him still produce them, if he has forgotten - I will make way for him.'
p1183
tp1184
a(S'and let him say if he has any testimony of the sort which he can produce'
p1185
S'And let him say, if he has any testimony of the sort which he can produce.'
p1186
tp1187
a(S'nay athenians the very opposite is the truth'
p1188
S'Nay, Athenians, the very opposite is the truth.'
p1189
tp1190
a(S'for all these are ready to witness on behalf of the corrupter of the destroyer of their kindred as meletus and anytus call me'
p1191
S'For all these are ready to witness on behalf of the corrupter, of the destroyer of their kindred, as Meletus and Anytus call me;'
p1192
tp1193
a(S'not the corrupted youth only  there might have been a motive for that  but their uncorrupted elder relatives'
p1194
S'not the corrupted youth only - there might have been a motive for that - but their uncorrupted elder relatives.'
p1195
tp1196
a(S'why should they too support me with their testimony'
p1197
S'Why should they too support me with their testimony?'
p1198
tp1199
a(S'why indeed except for the sake of truth and justice and because they know that i am speaking the truth and that meletus is lying'
p1200
S'Why, indeed, except for the sake of truth and justice, and because they know that I am speaking the truth, and that Meletus is lying.'
p1201
tp1202
a(S'well athenians this and the like of this is nearly all the defence which i have to offer'
p1203
S'Well, Athenians, this and the like of this is nearly all the defence which I have to offer.'
p1204
tp1205
a(S'yet a word more'
p1206
S'Yet a word more.'
p1207
tp1208
a(S'perhaps there may be someone who is offended at me when he calls to mind how he himself on a similar or even a less serious occasion had recourse to prayers and supplications with many tears and how he produced his children in court which was a moving spectacle together with a posse of his relations and friends'
p1209
S'Perhaps there may be someone who is offended at me, when he calls to mind how he himself, on a similar or even a less serious occasion, had recourse to prayers and supplications with many tears, and how he produced his children in court, which was a moving spectacle, together with a posse of his relations and friends;'
p1210
tp1211
a(S'whereas i who am probably in danger of my life will do none of these things'
p1212
S'whereas I, who am probably in danger of my life, will do none of these things.'
p1213
tp1214
a(S'perhaps this may come into his mind and he may be set against me and vote in anger because he is displeased at this'
p1215
S'Perhaps this may come into his mind, and he may be set against me, and vote in anger because he is displeased at this.'
p1216
tp1217
a(S'now if there be such a person among you which i am far from affirming i may fairly reply to him my friend i am a man and like other men a creature of flesh and blood and not of wood or stone as homer says'
p1218
S'Now if there be such a person among you, which I am far from affirming, I may fairly reply to him: My friend, I am a man, and like other men, a creature of flesh and blood, and not of wood or stone, as Homer says;'
p1219
tp1220
a(S'and i have a family yes and sons'
p1221
S'and I have a family, yes, and sons.'
p1222
tp1223
a(S'o athenians three in number one of whom is growing up and the two others are still young'
p1224
S'O Athenians, three in number, one of whom is growing up, and the two others are still young;'
p1225
tp1226
a(S'and yet i will not bring any of them hither in order to petition you for an acquittal'
p1227
S'and yet I will not bring any of them hither in order to petition you for an acquittal.'
p1228
tp1229
a(S'and why not'
p1230
S'And why not?'
p1231
tp1232
a(S'not from any selfwill or disregard of you'
p1233
S'Not from any self-will or disregard of you.'
p1234
tp1235
a(S'whether i am or am not afraid of death is another question of which i will not now speak'
p1236
S'Whether I am or am not afraid of death is another question, of which I will not now speak.'
p1237
tp1238
a(S'but my reason simply is that i feel such conduct to be discreditable to myself and you and the whole state'
p1239
S'But my reason simply is that I feel such conduct to be discreditable to myself, and you, and the whole state.'
p1240
tp1241
a(S'one who has reached my years and who has a name for wisdom whether deserved or not ought not to debase himself'
p1242
S'One who has reached my years, and who has a name for wisdom, whether deserved or not, ought not to debase himself.'
p1243
tp1244
a(S'at any rate the world has decided that socrates is in some way superior to other men'
p1245
S'At any rate, the world has decided that Socrates is in some way superior to other men.'
p1246
tp1247
a(S'and if those among you who are said to be superior in wisdom and courage and any other virtue demean themselves in this way how shameful is their conduct'
p1248
S'And if those among you who are said to be superior in wisdom and courage, and any other virtue, demean themselves in this way, how shameful is their conduct!'
p1249
tp1250
a(S'i have seen men of reputation when they have been condemned behaving in the strangest manner they seemed to fancy that they were going to suffer something dreadful if they died and that they could be immortal if you only allowed them to live'
p1251
S'I have seen men of reputation, when they have been condemned, behaving in the strangest manner: they seemed to fancy that they were going to suffer something dreadful if they died, and that they could be immortal if you only allowed them to live;'
p1252
tp1253
a(S'and i think that they were a dishonor to the state and that any stranger coming in would say of them that the most eminent men of athens to whom the athenians themselves give honor and command are no better than women'
p1254
S'and I think that they were a dishonor to the state, and that any stranger coming in would say of them that the most eminent men of Athens, to whom the Athenians themselves give honor and command, are no better than women.'
p1255
tp1256
a(S'and i say that these things ought not to be done by those of us who are of reputation'
p1257
S'And I say that these things ought not to be done by those of us who are of reputation;'
p1258
tp1259
a(S'and if they are done you ought not to permit them'
p1260
S'and if they are done, you ought not to permit them;'
p1261
tp1262
a(S'you ought rather to show that you are more inclined to condemn not the man who is quiet but the man who gets up a doleful scene and makes the city ridiculous'
p1263
S'you ought rather to show that you are more inclined to condemn, not the man who is quiet, but the man who gets up a doleful scene, and makes the city ridiculous.'
p1264
tp1265
a(S'but setting aside the question of dishonor there seems to be something wrong in petitioning a judge and thus procuring an acquittal instead of informing and convincing him'
p1266
S'But, setting aside the question of dishonor, there seems to be something wrong in petitioning a judge, and thus procuring an acquittal instead of informing and convincing him.'
p1267
tp1268
a(S'for his duty is not to make a present of justice but to give judgment'
p1269
S'For his duty is, not to make a present of justice, but to give judgment;'
p1270
tp1271
a(S'and he has sworn that he will judge according to the laws and not according to his own good pleasure'
p1272
S'and he has sworn that he will judge according to the laws, and not according to his own good pleasure;'
p1273
tp1274
a(S'and neither he nor we should get into the habit of perjuring ourselves  there can be no piety in that'
p1275
S'and neither he nor we should get into the habit of perjuring ourselves - there can be no piety in that.'
p1276
tp1277
a(S'do not then require me to do what i consider dishonorable and impious and wrong especially now when i am being tried for impiety on the indictment of meletus'
p1278
S'Do not then require me to do what I consider dishonorable and impious and wrong, especially now, when I am being tried for impiety on the indictment of Meletus.'
p1279
tp1280
a(S'for if o men of athens by force of persuasion and entreaty i could overpower your oaths then i should be teaching you to believe that there are no gods and convict myself in my own defence of not believing in them'
p1281
S'For if, O men of Athens, by force of persuasion and entreaty, I could overpower your oaths, then I should be teaching you to believe that there are no gods, and convict myself, in my own defence, of not believing in them.'
p1282
tp1283
a(S'but that is not the case'
p1284
S'But that is not the case;'
p1285
tp1286
a(S'for i do believe that there are gods and in a far higher sense than that in which any of my accusers believe in them'
p1287
S'for I do believe that there are gods, and in a far higher sense than that in which any of my accusers believe in them.'
p1288
tp1289
a(S'and to you and to god i commit my cause to be determined by you as is best for you and me'
p1290
S'And to you and to God I commit my cause, to be determined by you as is best for you and me.'
p1291
tp1292
a(S'the jury finds socrates guilty'
p1293
S'(The jury finds Socrates guilty.)'
p1294
tp1295
a(S'socrates proposal for his sentence there are many reasons why i am not grieved o men of athens at the vote of condemnation'
p1296
S"Socrates' Proposal for his Sentence There are many reasons why I am not grieved, O men of Athens, at the vote of condemnation."
p1297
tp1298
a(S'i expected it and am only surprised that the votes are so nearly equal'
p1299
S'I expected it, and am only surprised that the votes are so nearly equal;'
p1300
tp1301
a(S'for i had thought that the majority against me would have been far larger'
p1302
S'for I had thought that the majority against me would have been far larger;'
p1303
tp1304
a(S'but now had thirty votes gone over to the other side i should have been acquitted'
p1305
S'but now, had thirty votes gone over to the other side, I should have been acquitted.'
p1306
tp1307
a(S'and i may say that i have escaped meletus'
p1308
S'And I may say that I have escaped Meletus.'
p1309
tp1310
a(S'and i may say more'
p1311
S'And I may say more;'
p1312
tp1313
a(S'for without the assistance of anytus and lycon he would not have had a fifth part of the votes as the law requires in which case he would have incurred a fine of a thousand drachmae as is evident'
p1314
S'for without the assistance of Anytus and Lycon, he would not have had a fifth part of the votes, as the law requires, in which case he would have incurred a fine of a thousand drachmae, as is evident.'
p1315
tp1316
a(S'and so he proposes death as the penalty'
p1317
S'And so he proposes death as the penalty.'
p1318
tp1319
a(S'and what shall i propose on my part o men of athens'
p1320
S'And what shall I propose on my part, O men of Athens?'
p1321
tp1322
a(S'clearly that which is my due'
p1323
S'Clearly that which is my due.'
p1324
tp1325
a(S'and what is that which i ought to pay or to receive'
p1326
S'And what is that which I ought to pay or to receive?'
p1327
tp1328
a(S'what shall be done to the man who has never had the wit to be idle during his whole life'
p1329
S'What shall be done to the man who has never had the wit to be idle during his whole life;'
p1330
tp1331
a(S'but has been careless of what the many care about  wealth and family interests and military offices and speaking in the assembly and magistracies and plots and parties'
p1332
S'but has been careless of what the many care about - wealth, and family interests, and military offices, and speaking in the assembly, and magistracies, and plots, and parties.'
p1333
tp1334
a(S'reflecting that i was really too honest a man to follow in this way and live i did not go where i could do no good to you or to myself'
p1335
S'Reflecting that I was really too honest a man to follow in this way and live, I did not go where I could do no good to you or to myself;'
p1336
tp1337
a(S'but where i could do the greatest good privately to everyone of you thither i went and sought to persuade every man among you that he must look to himself and seek virtue and wisdom before he looks to his private interests and look to the state before he looks to the interests of the state'
p1338
S'but where I could do the greatest good privately to everyone of you, thither I went, and sought to persuade every man among you that he must look to himself, and seek virtue and wisdom before he looks to his private interests, and look to the state before he looks to the interests of the state;'
p1339
tp1340
a(S'and that this should be the order which he observes in all his actions'
p1341
S'and that this should be the order which he observes in all his actions.'
p1342
tp1343
a(S'what shall be done to such a one'
p1344
S'What shall be done to such a one?'
p1345
tp1346
a(S'doubtless some good thing o men of athens if he has his reward'
p1347
S'Doubtless some good thing, O men of Athens, if he has his reward;'
p1348
tp1349
a(S'and the good should be of a kind suitable to him'
p1350
S'and the good should be of a kind suitable to him.'
p1351
tp1352
a(S'what would be a reward suitable to a poor man who is your benefactor who desires leisure that he may instruct you'
p1353
S'What would be a reward suitable to a poor man who is your benefactor, who desires leisure that he may instruct you?'
p1354
tp1355
a(S'there can be no more fitting reward than maintenance in the prytaneum o men of athens a reward which he deserves far more than the citizen who has won the prize at olympia in the horse or chariot race whether the chariots were drawn by two horses or by many'
p1356
S'There can be no more fitting reward than maintenance in the Prytaneum, O men of Athens, a reward which he deserves far more than the citizen who has won the prize at Olympia in the horse or chariot race, whether the chariots were drawn by two horses or by many.'
p1357
tp1358
a(S'for i am in want and he has enough'
p1359
S'For I am in want, and he has enough;'
p1360
tp1361
a(S'and he only gives you the appearance of happiness and i give you the reality'
p1362
S'and he only gives you the appearance of happiness, and I give you the reality.'
p1363
tp1364
a(S'and if i am to estimate the penalty justly i say that maintenance in the prytaneum is the just return'
p1365
S'And if I am to estimate the penalty justly, I say that maintenance in the Prytaneum is the just return.'
p1366
tp1367
a(S'perhaps you may think that i am braving you in saying this as in what i said before about the tears and prayers'
p1368
S'Perhaps you may think that I am braving you in saying this, as in what I said before about the tears and prayers.'
p1369
tp1370
a(S'but that is not the case'
p1371
S'But that is not the case.'
p1372
tp1373
a(S'i speak rather because i am convinced that i never intentionally wronged anyone although i cannot convince you of that  for we have had a short conversation only'
p1374
S'I speak rather because I am convinced that I never intentionally wronged anyone, although I cannot convince you of that - for we have had a short conversation only;'
p1375
tp1376
a(S'but if there were a law at athens such as there is in other cities that a capital cause should not be decided in one day then i believe that i should have convinced you'
p1377
S'but if there were a law at Athens, such as there is in other cities, that a capital cause should not be decided in one day, then I believe that I should have convinced you;'
p1378
tp1379
a(S'but now the time is too short'
p1380
S'but now the time is too short.'
p1381
tp1382
a(S'i cannot in a moment refute great slanders'
p1383
S'I cannot in a moment refute great slanders;'
p1384
tp1385
a(S'and as i am convinced that i never wronged another i will assuredly not wrong myself'
p1386
S'and, as I am convinced that I never wronged another, I will assuredly not wrong myself.'
p1387
tp1388
a(S'i will not say of myself that i deserve any evil or propose any penalty'
p1389
S'I will not say of myself that I deserve any evil, or propose any penalty.'
p1390
tp1391
a(S'why should i'
p1392
S'Why should I?'
p1393
tp1394
a(S'because i am afraid of the penalty of death which meletus proposes'
p1395
S'Because I am afraid of the penalty of death which Meletus proposes?'
p1396
tp1397
a(S'when i do not know whether death is a good or an evil why should i propose a penalty which would certainly be an evil'
p1398
S'When I do not know whether death is a good or an evil, why should I propose a penalty which would certainly be an evil?'
p1399
tp1400
a(S'shall i say imprisonment'
p1401
S'Shall I say imprisonment?'
p1402
tp1403
a(S'and why should i live in prison and be the slave of the magistrates of the year  of the eleven'
p1404
S'And why should I live in prison, and be the slave of the magistrates of the year - of the Eleven?'
p1405
tp1406
a(S'or shall the penalty be a fine and imprisonment until the fine is paid'
p1407
S'Or shall the penalty be a fine, and imprisonment until the fine is paid?'
p1408
tp1409
a(S'there is the same objection'
p1410
S'There is the same objection.'
p1411
tp1412
a(S'i should have to lie in prison for money i have none and i cannot pay'
p1413
S'I should have to lie in prison, for money I have none, and I cannot pay.'
p1414
tp1415
a(S'and if i say exile and this may possibly be the penalty which you will affix i must indeed be blinded by the love of life if i were to consider that when you who are my own citizens cannot endure my discourses and words and have found them so grievous and odious that you would fain have done with them others are likely to endure me'
p1416
S'And if I say exile (and this may possibly be the penalty which you will affix), I must indeed be blinded by the love of life if I were to consider that when you, who are my own citizens, cannot endure my discourses and words, and have found them so grievous and odious that you would fain have done with them, others are likely to endure me.'
p1417
tp1418
a(S'no indeed men of athens that is not very likely'
p1419
S'No, indeed, men of Athens, that is not very likely.'
p1420
tp1421
a(S'and what a life should i lead at my age wandering from city to city living in everchanging exile and always being driven out'
p1422
S'And what a life should I lead, at my age, wandering from city to city, living in ever-changing exile, and always being driven out!'
p1423
tp1424
a(S'for i am quite sure that into whatever place i go as here so also there the young men will come to me'
p1425
S'For I am quite sure that into whatever place I go, as here so also there, the young men will come to me;'
p1426
tp1427
a(S'and if i drive them away their elders will drive me out at their desire and if i let them come their fathers and friends will drive me out for their sakes'
p1428
S'and if I drive them away, their elders will drive me out at their desire: and if I let them come, their fathers and friends will drive me out for their sakes.'
p1429
tp1430
a(S'someone will say yes socrates but cannot you hold your tongue and then you may go into a foreign city and no one will interfere with you'
p1431
S'Someone will say: Yes, Socrates, but cannot you hold your tongue, and then you may go into a foreign city, and no one will interfere with you?'
p1432
tp1433
a(S'now i have great difficulty in making you understand my answer to this'
p1434
S'Now I have great difficulty in making you understand my answer to this.'
p1435
tp1436
a(S'for if i tell you that this would be a disobedience to a divine command and therefore that i cannot hold my tongue you will not believe that i am serious'
p1437
S'For if I tell you that this would be a disobedience to a divine command, and therefore that I cannot hold my tongue, you will not believe that I am serious;'
p1438
tp1439
a(S'and if i say again that the greatest good of man is daily to converse about virtue and all that concerning which you hear me examining myself and others and that the life which is unexamined is not worth living  that you are still less likely to believe'
p1440
S'and if I say again that the greatest good of man is daily to converse about virtue, and all that concerning which you hear me examining myself and others, and that the life which is unexamined is not worth living - that you are still less likely to believe.'
p1441
tp1442
a(S'and yet what i say is true although a thing of which it is hard for me to persuade you'
p1443
S'And yet what I say is true, although a thing of which it is hard for me to persuade you.'
p1444
tp1445
a(S'moreover i am not accustomed to think that i deserve any punishment'
p1446
S'Moreover, I am not accustomed to think that I deserve any punishment.'
p1447
tp1448
a(S'had i money i might have proposed to give you what i had and have been none the worse'
p1449
S'Had I money I might have proposed to give you what I had, and have been none the worse.'
p1450
tp1451
a(S'but you see that i have none and can only ask you to proportion the fine to my means'
p1452
S'But you see that I have none, and can only ask you to proportion the fine to my means.'
p1453
tp1454
a(S'however i think that i could afford a minae and therefore i propose that penalty'
p1455
S'However, I think that I could afford a minae, and therefore I propose that penalty;'
p1456
tp1457
a(S'plato crito critobulus and apollodorus my friends here bid me say thirty minae and they will be the sureties'
p1458
S'Plato, Crito, Critobulus, and Apollodorus, my friends here, bid me say thirty minae, and they will be the sureties.'
p1459
tp1460
a(S'well then say thirty minae let that be the penalty'
p1461
S'Well then, say thirty minae, let that be the penalty;'
p1462
tp1463
a(S'for that they will be ample security to you'
p1464
S'for that they will be ample security to you.'
p1465
tp1466
a(S'the jury condemns socrates to death'
p1467
S'(The jury condemns Socrates to death.)'
p1468
tp1469
a(S'socrates comments on his sentence not much time will be gained o athenians in return for the evil name which you will get from the detractors of the city who will say that you killed socrates a wise man'
p1470
S"Socrates' Comments on his Sentence Not much time will be gained, O Athenians, in return for the evil name which you will get from the detractors of the city, who will say that you killed Socrates, a wise man;"
p1471
tp1472
a(S'for they will call me wise even although i am not wise when they want to reproach you'
p1473
S'for they will call me wise even although I am not wise when they want to reproach you.'
p1474
tp1475
a(S'if you had waited a little while your desire would have been fulfilled in the course of nature'
p1476
S'If you had waited a little while, your desire would have been fulfilled in the course of nature.'
p1477
tp1478
a(S'for i am far advanced in years as you may perceive and not far from death'
p1479
S'For I am far advanced in years, as you may perceive, and not far from death.'
p1480
tp1481
a(S'i am speaking now only to those of you who have condemned me to death'
p1482
S'I am speaking now only to those of you who have condemned me to death.'
p1483
tp1484
a(S'and i have another thing to say to them you think that i was convicted through deficiency of words  i mean that if i had thought fit to leave nothing undone nothing unsaid i might have gained an acquittal'
p1485
S'And I have another thing to say to them: You think that I was convicted through deficiency of words - I mean, that if I had thought fit to leave nothing undone, nothing unsaid, I might have gained an acquittal.'
p1486
tp1487
a(S'not so'
p1488
S'Not so;'
p1489
tp1490
a(S'the deficiency which led to my conviction was not of words  certainly not'
p1491
S'the deficiency which led to my conviction was not of words - certainly not.'
p1492
tp1493
a(S'but i had not the boldness or impudence or inclination to address you as you would have liked me to address you weeping and wailing and lamenting and saying and doing many things which you have been accustomed to hear from others and which as i say are unworthy of me'
p1494
S'But I had not the boldness or impudence or inclination to address you as you would have liked me to address you, weeping and wailing and lamenting, and saying and doing many things which you have been accustomed to hear from others, and which, as I say, are unworthy of me.'
p1495
tp1496
a(S'but i thought that i ought not to do anything common or mean in the hour of danger nor do i now repent of the manner of my defence and i would rather die having spoken after my manner than speak in your manner and live'
p1497
S'But I thought that I ought not to do anything common or mean in the hour of danger: nor do I now repent of the manner of my defence, and I would rather die having spoken after my manner, than speak in your manner and live.'
p1498
tp1499
a(S'for neither in war nor yet at law ought any man to use every way of escaping death'
p1500
S'For neither in war nor yet at law ought any man to use every way of escaping death.'
p1501
tp1502
a(S'for often in battle there is no doubt that if a man will throw away his arms and fall on his knees before his pursuers he may escape death'
p1503
S'For often in battle there is no doubt that if a man will throw away his arms, and fall on his knees before his pursuers, he may escape death;'
p1504
tp1505
a(S'and in other dangers there are other ways of escaping death if a man is willing to say and do anything'
p1506
S'and in other dangers there are other ways of escaping death, if a man is willing to say and do anything.'
p1507
tp1508
a(S'the difficulty my friends is not in avoiding death but in avoiding unrighteousness'
p1509
S'The difficulty, my friends, is not in avoiding death, but in avoiding unrighteousness;'
p1510
tp1511
a(S'for that runs faster than death'
p1512
S'for that runs faster than death.'
p1513
tp1514
a(S'i am old and move slowly and the slower runner has overtaken me and my accusers are keen and quick and the faster runner who is unrighteousness has overtaken them'
p1515
S'I am old and move slowly, and the slower runner has overtaken me, and my accusers are keen and quick, and the faster runner, who is unrighteousness, has overtaken them.'
p1516
tp1517
a(S'and now i depart hence condemned by you to suffer the penalty of death and they too go their ways condemned by the truth to suffer the penalty of villainy and wrong'
p1518
S'And now I depart hence condemned by you to suffer the penalty of death, and they, too, go their ways condemned by the truth to suffer the penalty of villainy and wrong;'
p1519
tp1520
a(S'and i must abide by my award  let them abide by theirs'
p1521
S'and I must abide by my award - let them abide by theirs.'
p1522
tp1523
a(S'i suppose that these things may be regarded as fated  and i think that they are well'
p1524
S'I suppose that these things may be regarded as fated, - and I think that they are well.'
p1525
tp1526
a(S'and now o men who have condemned me i would fain prophesy to you'
p1527
S'And now, O men who have condemned me, I would fain prophesy to you;'
p1528
tp1529
a(S'for i am about to die and that is the hour in which men are gifted with prophetic power'
p1530
S'for I am about to die, and that is the hour in which men are gifted with prophetic power.'
p1531
tp1532
a(S'and i prophesy to you who are my murderers that immediately after my death punishment far heavier than you have inflicted on me will surely await you'
p1533
S'And I prophesy to you who are my murderers, that immediately after my death punishment far heavier than you have inflicted on me will surely await you.'
p1534
tp1535
a(S'me you have killed because you wanted to escape the accuser and not to give an account of your lives'
p1536
S'Me you have killed because you wanted to escape the accuser, and not to give an account of your lives.'
p1537
tp1538
a(S'but that will not be as you suppose far otherwise'
p1539
S'But that will not be as you suppose: far otherwise.'
p1540
tp1541
a(S'for i say that there will be more accusers of you than there are now'
p1542
S'For I say that there will be more accusers of you than there are now;'
p1543
tp1544
a(S'accusers whom hitherto i have restrained and as they are younger they will be more severe with you and you will be more offended at them'
p1545
S'accusers whom hitherto I have restrained: and as they are younger they will be more severe with you, and you will be more offended at them.'
p1546
tp1547
a(S'for if you think that by killing men you can avoid the accuser censuring your lives you are mistaken'
p1548
S'For if you think that by killing men you can avoid the accuser censuring your lives, you are mistaken;'
p1549
tp1550
a(S'that is not a way of escape which is either possible or honorable'
p1551
S'that is not a way of escape which is either possible or honorable;'
p1552
tp1553
a(S'the easiest and noblest way is not to be crushing others but to be improving yourselves'
p1554
S'the easiest and noblest way is not to be crushing others, but to be improving yourselves.'
p1555
tp1556
a(S'this is the prophecy which i utter before my departure to the judges who have condemned me'
p1557
S'This is the prophecy which I utter before my departure, to the judges who have condemned me.'
p1558
tp1559
a(S'friends who would have acquitted me i would like also to talk with you about this thing which has happened while the magistrates are busy and before i go to the place at which i must die'
p1560
S'Friends, who would have acquitted me, I would like also to talk with you about this thing which has happened, while the magistrates are busy, and before I go to the place at which I must die.'
p1561
tp1562
a(S'stay then awhile for we may as well talk with one another while there is time'
p1563
S'Stay then awhile, for we may as well talk with one another while there is time.'
p1564
tp1565
a(S'you are my friends and i should like to show you the meaning of this event which has happened to me'
p1566
S'You are my friends, and I should like to show you the meaning of this event which has happened to me.'
p1567
tp1568
a(S'o my judges  for you i may truly call judges  i should like to tell you of a wonderful circumstance'
p1569
S'O my judges - for you I may truly call judges - I should like to tell you of a wonderful circumstance.'
p1570
tp1571
a(S'hitherto the familiar oracle within me has constantly been in the habit of opposing me even about trifles if i was going to make a slip or error about anything'
p1572
S'Hitherto the familiar oracle within me has constantly been in the habit of opposing me even about trifles, if I was going to make a slip or error about anything;'
p1573
tp1574
a(S'and now as you see there has come upon me that which may be thought and is generally believed to be the last and worst evil'
p1575
S'and now as you see there has come upon me that which may be thought, and is generally believed to be, the last and worst evil.'
p1576
tp1577
a(S'but the oracle made no sign of opposition either as i was leaving my house and going out in the morning or when i was going up into this court or while i was speaking at anything which i was going to say'
p1578
S'But the oracle made no sign of opposition, either as I was leaving my house and going out in the morning, or when I was going up into this court, or while I was speaking, at anything which I was going to say;'
p1579
tp1580
a(S'and yet i have often been stopped in the middle of a speech'
p1581
S'and yet I have often been stopped in the middle of a speech;'
p1582
tp1583
a(S'but now in nothing i either said or did touching this matter has the oracle opposed me'
p1584
S'but now in nothing I either said or did touching this matter has the oracle opposed me.'
p1585
tp1586
a(S'what do i take to be the explanation of this'
p1587
S'What do I take to be the explanation of this?'
p1588
tp1589
a(S'i will tell you'
p1590
S'I will tell you.'
p1591
tp1592
a(S'i regard this as a proof that what has happened to me is a good and that those of us who think that death is an evil are in error'
p1593
S'I regard this as a proof that what has happened to me is a good, and that those of us who think that death is an evil are in error.'
p1594
tp1595
a(S'this is a great proof to me of what i am saying for the customary sign would surely have opposed me had i been going to evil and not to good'
p1596
S'This is a great proof to me of what I am saying, for the customary sign would surely have opposed me had I been going to evil and not to good.'
p1597
tp1598
a(S'let us reflect in another way and we shall see that there is great reason to hope that death is a good for one of two things  either death is a state of nothingness and utter unconsciousness or as men say there is a change and migration of the soul from this world to another'
p1599
S'Let us reflect in another way, and we shall see that there is great reason to hope that death is a good, for one of two things: - either death is a state of nothingness and utter unconsciousness, or, as men say, there is a change and migration of the soul from this world to another.'
p1600
tp1601
a(S'now if you suppose that there is no consciousness but a sleep like the sleep of him who is undisturbed even by the sight of dreams death will be an unspeakable gain'
p1602
S'Now if you suppose that there is no consciousness, but a sleep like the sleep of him who is undisturbed even by the sight of dreams, death will be an unspeakable gain.'
p1603
tp1604
a(S'for if a person were to select the night in which his sleep was undisturbed even by dreams and were to compare with this the other days and nights of his life and then were to tell us how many days and nights he had passed in the course of his life better and more pleasantly than this one i think that any man i will not say a private man but even the great king will not find many such days or nights when compared with the others'
p1605
S'For if a person were to select the night in which his sleep was undisturbed even by dreams, and were to compare with this the other days and nights of his life, and then were to tell us how many days and nights he had passed in the course of his life better and more pleasantly than this one, I think that any man, I will not say a private man, but even the great king, will not find many such days or nights, when compared with the others.'
p1606
tp1607
a(S'now if death is like this i say that to die is gain'
p1608
S'Now if death is like this, I say that to die is gain;'
p1609
tp1610
a(S'for eternity is then only a single night'
p1611
S'for eternity is then only a single night.'
p1612
tp1613
a(S'but if death is the journey to another place and there as men say all the dead are what good o my friends and judges can be greater than this'
p1614
S'But if death is the journey to another place, and there, as men say, all the dead are, what good, O my friends and judges, can be greater than this?'
p1615
tp1616
a(S'if indeed when the pilgrim arrives in the world below he is delivered from the professors of justice in this world and finds the true judges who are said to give judgment there minos and rhadamanthus and aeacus and triptolemus and other sons of god who were righteous in their own life that pilgrimage will be worth making'
p1617
S'If indeed when the pilgrim arrives in the world below, he is delivered from the professors of justice in this world, and finds the true judges who are said to give judgment there, Minos and Rhadamanthus and Aeacus and Triptolemus, and other sons of God who were righteous in their own life, that pilgrimage will be worth making.'
p1618
tp1619
a(S'what would not a man give if he might converse with orpheus and musaeus and hesiod and homer'
p1620
S'What would not a man give if he might converse with Orpheus and Musaeus and Hesiod and Homer?'
p1621
tp1622
a(S'nay if this be true let me die again and again'
p1623
S'Nay, if this be true, let me die again and again.'
p1624
tp1625
a(S'i too shall have a wonderful interest in a place where i can converse with palamedes and ajax the son of telamon and other heroes of old who have suffered death through an unjust judgment'
p1626
S'I, too, shall have a wonderful interest in a place where I can converse with Palamedes, and Ajax the son of Telamon, and other heroes of old, who have suffered death through an unjust judgment;'
p1627
tp1628
a(S'and there will be no small pleasure as i think in comparing my own sufferings with theirs'
p1629
S'and there will be no small pleasure, as I think, in comparing my own sufferings with theirs.'
p1630
tp1631
a(S'above all i shall be able to continue my search into true and false knowledge'
p1632
S'Above all, I shall be able to continue my search into true and false knowledge;'
p1633
tp1634
a(S'as in this world so also in that'
p1635
S'as in this world, so also in that;'
p1636
tp1637
a(S'i shall find out who is wise and who pretends to be wise and is not'
p1638
S'I shall find out who is wise, and who pretends to be wise, and is not.'
p1639
tp1640
a(S'what would not a man give o judges to be able to examine the leader of the great trojan expedition'
p1641
S'What would not a man give, O judges, to be able to examine the leader of the great Trojan expedition;'
p1642
tp1643
a(S'or odysseus or sisyphus or numberless others men and women too'
p1644
S'or Odysseus or Sisyphus, or numberless others, men and women too!'
p1645
tp1646
a(S'what infinite delight would there be in conversing with them and asking them questions'
p1647
S'What infinite delight would there be in conversing with them and asking them questions!'
p1648
tp1649
a(S'for in that world they do not put a man to death for this'
p1650
S'For in that world they do not put a man to death for this;'
p1651
tp1652
a(S'certainly not'
p1653
S'certainly not.'
p1654
tp1655
a(S'for besides being happier in that world than in this they will be immortal if what is said is true'
p1656
S'For besides being happier in that world than in this, they will be immortal, if what is said is true.'
p1657
tp1658
a(S'wherefore o judges be of good cheer about death and know this of a truth  that no evil can happen to a good man either in life or after death'
p1659
S'Wherefore, O judges, be of good cheer about death, and know this of a truth - that no evil can happen to a good man, either in life or after death.'
p1660
tp1661
a(S'he and his are not neglected by the gods'
p1662
S'He and his are not neglected by the gods;'
p1663
tp1664
a(S'nor has my own approaching end happened by mere chance'
p1665
S'nor has my own approaching end happened by mere chance.'
p1666
tp1667
a(S'but i see clearly that to die and be released was better for me'
p1668
S'But I see clearly that to die and be released was better for me;'
p1669
tp1670
a(S'and therefore the oracle gave no sign'
p1671
S'and therefore the oracle gave no sign.'
p1672
tp1673
a(S'for which reason also i am not angry with my accusers or my condemners'
p1674
S'For which reason also, I am not angry with my accusers, or my condemners;'
p1675
tp1676
a(S'they have done me no harm although neither of them meant to do me any good'
p1677
S'they have done me no harm, although neither of them meant to do me any good;'
p1678
tp1679
a(S'and for this i may gently blame them'
p1680
S'and for this I may gently blame them.'
p1681
tp1682
a(S'still i have a favor to ask of them'
p1683
S'Still I have a favor to ask of them.'
p1684
tp1685
a(S'when my sons are grown up i would ask you o my friends to punish them'
p1686
S'When my sons are grown up, I would ask you, O my friends, to punish them;'
p1687
tp1688
a(S'and i would have you trouble them as i have troubled you if they seem to care about riches or anything more than about virtue'
p1689
S'and I would have you trouble them, as I have troubled you, if they seem to care about riches, or anything, more than about virtue;'
p1690
tp1691
a(S'or if they pretend to be something when they are really nothing  then reprove them as i have reproved you for not caring about that for which they ought to care and thinking that they are something when they are really nothing'
p1692
S'or if they pretend to be something when they are really nothing, - then reprove them, as I have reproved you, for not caring about that for which they ought to care, and thinking that they are something when they are really nothing.'
p1693
tp1694
a(S'and if you do this i and my sons will have received justice at your hands'
p1695
S'And if you do this, I and my sons will have received justice at your hands.'
p1696
tp1697
a(S'the hour of departure has arrived and we go our ways  i to die and you to live'
p1698
S'The hour of departure has arrived, and we go our ways - I to die, and you to live.'
p1699
tp1700
a(S'which is better god only knows'
p1701
S'Which is better God only knows.'
p1702
tp1703
a.